
1:     file format elf32-i386


Disassembly of section .init:

00001000 <_init>:
    1000:	f3 0f 1e fb          	endbr32 
    1004:	53                   	push   %ebx
    1005:	83 ec 08             	sub    $0x8,%esp
    1008:	e8 43 03 00 00       	call   1350 <__x86.get_pc_thunk.bx>
    100d:	81 c3 7b 2f 00 00    	add    $0x2f7b,%ebx
    1013:	8b 83 6c 00 00 00    	mov    0x6c(%ebx),%eax
    1019:	85 c0                	test   %eax,%eax
    101b:	74 02                	je     101f <_init+0x1f>
    101d:	ff d0                	call   *%eax
    101f:	83 c4 08             	add    $0x8,%esp
    1022:	5b                   	pop    %ebx
    1023:	c3                   	ret    

Disassembly of section .plt:

00001030 <.plt>:
    1030:	ff b3 04 00 00 00    	pushl  0x4(%ebx)
    1036:	ff a3 08 00 00 00    	jmp    *0x8(%ebx)
    103c:	0f 1f 40 00          	nopl   0x0(%eax)
    1040:	f3 0f 1e fb          	endbr32 
    1044:	68 00 00 00 00       	push   $0x0
    1049:	e9 e2 ff ff ff       	jmp    1030 <.plt>
    104e:	66 90                	xchg   %ax,%ax
    1050:	f3 0f 1e fb          	endbr32 
    1054:	68 08 00 00 00       	push   $0x8
    1059:	e9 d2 ff ff ff       	jmp    1030 <.plt>
    105e:	66 90                	xchg   %ax,%ax
    1060:	f3 0f 1e fb          	endbr32 
    1064:	68 10 00 00 00       	push   $0x10
    1069:	e9 c2 ff ff ff       	jmp    1030 <.plt>
    106e:	66 90                	xchg   %ax,%ax
    1070:	f3 0f 1e fb          	endbr32 
    1074:	68 18 00 00 00       	push   $0x18
    1079:	e9 b2 ff ff ff       	jmp    1030 <.plt>
    107e:	66 90                	xchg   %ax,%ax
    1080:	f3 0f 1e fb          	endbr32 
    1084:	68 20 00 00 00       	push   $0x20
    1089:	e9 a2 ff ff ff       	jmp    1030 <.plt>
    108e:	66 90                	xchg   %ax,%ax
    1090:	f3 0f 1e fb          	endbr32 
    1094:	68 28 00 00 00       	push   $0x28
    1099:	e9 92 ff ff ff       	jmp    1030 <.plt>
    109e:	66 90                	xchg   %ax,%ax
    10a0:	f3 0f 1e fb          	endbr32 
    10a4:	68 30 00 00 00       	push   $0x30
    10a9:	e9 82 ff ff ff       	jmp    1030 <.plt>
    10ae:	66 90                	xchg   %ax,%ax
    10b0:	f3 0f 1e fb          	endbr32 
    10b4:	68 38 00 00 00       	push   $0x38
    10b9:	e9 72 ff ff ff       	jmp    1030 <.plt>
    10be:	66 90                	xchg   %ax,%ax
    10c0:	f3 0f 1e fb          	endbr32 
    10c4:	68 40 00 00 00       	push   $0x40
    10c9:	e9 62 ff ff ff       	jmp    1030 <.plt>
    10ce:	66 90                	xchg   %ax,%ax
    10d0:	f3 0f 1e fb          	endbr32 
    10d4:	68 48 00 00 00       	push   $0x48
    10d9:	e9 52 ff ff ff       	jmp    1030 <.plt>
    10de:	66 90                	xchg   %ax,%ax
    10e0:	f3 0f 1e fb          	endbr32 
    10e4:	68 50 00 00 00       	push   $0x50
    10e9:	e9 42 ff ff ff       	jmp    1030 <.plt>
    10ee:	66 90                	xchg   %ax,%ax
    10f0:	f3 0f 1e fb          	endbr32 
    10f4:	68 58 00 00 00       	push   $0x58
    10f9:	e9 32 ff ff ff       	jmp    1030 <.plt>
    10fe:	66 90                	xchg   %ax,%ax
    1100:	f3 0f 1e fb          	endbr32 
    1104:	68 60 00 00 00       	push   $0x60
    1109:	e9 22 ff ff ff       	jmp    1030 <.plt>
    110e:	66 90                	xchg   %ax,%ax
    1110:	f3 0f 1e fb          	endbr32 
    1114:	68 68 00 00 00       	push   $0x68
    1119:	e9 12 ff ff ff       	jmp    1030 <.plt>
    111e:	66 90                	xchg   %ax,%ax
    1120:	f3 0f 1e fb          	endbr32 
    1124:	68 70 00 00 00       	push   $0x70
    1129:	e9 02 ff ff ff       	jmp    1030 <.plt>
    112e:	66 90                	xchg   %ax,%ax
    1130:	f3 0f 1e fb          	endbr32 
    1134:	68 78 00 00 00       	push   $0x78
    1139:	e9 f2 fe ff ff       	jmp    1030 <.plt>
    113e:	66 90                	xchg   %ax,%ax
    1140:	f3 0f 1e fb          	endbr32 
    1144:	68 80 00 00 00       	push   $0x80
    1149:	e9 e2 fe ff ff       	jmp    1030 <.plt>
    114e:	66 90                	xchg   %ax,%ax
    1150:	f3 0f 1e fb          	endbr32 
    1154:	68 88 00 00 00       	push   $0x88
    1159:	e9 d2 fe ff ff       	jmp    1030 <.plt>
    115e:	66 90                	xchg   %ax,%ax
    1160:	f3 0f 1e fb          	endbr32 
    1164:	68 90 00 00 00       	push   $0x90
    1169:	e9 c2 fe ff ff       	jmp    1030 <.plt>
    116e:	66 90                	xchg   %ax,%ax
    1170:	f3 0f 1e fb          	endbr32 
    1174:	68 98 00 00 00       	push   $0x98
    1179:	e9 b2 fe ff ff       	jmp    1030 <.plt>
    117e:	66 90                	xchg   %ax,%ax
    1180:	f3 0f 1e fb          	endbr32 
    1184:	68 a0 00 00 00       	push   $0xa0
    1189:	e9 a2 fe ff ff       	jmp    1030 <.plt>
    118e:	66 90                	xchg   %ax,%ax
    1190:	f3 0f 1e fb          	endbr32 
    1194:	68 a8 00 00 00       	push   $0xa8
    1199:	e9 92 fe ff ff       	jmp    1030 <.plt>
    119e:	66 90                	xchg   %ax,%ax

Disassembly of section .plt.got:

000011a0 <__cxa_finalize@plt>:
    11a0:	f3 0f 1e fb          	endbr32 
    11a4:	ff a3 68 00 00 00    	jmp    *0x68(%ebx)
    11aa:	66 0f 1f 44 00 00    	nopw   0x0(%eax,%eax,1)

Disassembly of section .plt.sec:

000011b0 <pthread_mutex_unlock@plt>:
    11b0:	f3 0f 1e fb          	endbr32 
    11b4:	ff a3 0c 00 00 00    	jmp    *0xc(%ebx)
    11ba:	66 0f 1f 44 00 00    	nopw   0x0(%eax,%eax,1)

000011c0 <pthread_mutex_destroy@plt>:
    11c0:	f3 0f 1e fb          	endbr32 
    11c4:	ff a3 10 00 00 00    	jmp    *0x10(%ebx)
    11ca:	66 0f 1f 44 00 00    	nopw   0x0(%eax,%eax,1)

000011d0 <printf@plt>:
    11d0:	f3 0f 1e fb          	endbr32 
    11d4:	ff a3 14 00 00 00    	jmp    *0x14(%ebx)
    11da:	66 0f 1f 44 00 00    	nopw   0x0(%eax,%eax,1)

000011e0 <iswxdigit@plt>:
    11e0:	f3 0f 1e fb          	endbr32 
    11e4:	ff a3 18 00 00 00    	jmp    *0x18(%ebx)
    11ea:	66 0f 1f 44 00 00    	nopw   0x0(%eax,%eax,1)

000011f0 <free@plt>:
    11f0:	f3 0f 1e fb          	endbr32 
    11f4:	ff a3 1c 00 00 00    	jmp    *0x1c(%ebx)
    11fa:	66 0f 1f 44 00 00    	nopw   0x0(%eax,%eax,1)

00001200 <memcpy@plt>:
    1200:	f3 0f 1e fb          	endbr32 
    1204:	ff a3 20 00 00 00    	jmp    *0x20(%ebx)
    120a:	66 0f 1f 44 00 00    	nopw   0x0(%eax,%eax,1)

00001210 <pthread_mutex_init@plt>:
    1210:	f3 0f 1e fb          	endbr32 
    1214:	ff a3 24 00 00 00    	jmp    *0x24(%ebx)
    121a:	66 0f 1f 44 00 00    	nopw   0x0(%eax,%eax,1)

00001220 <time@plt>:
    1220:	f3 0f 1e fb          	endbr32 
    1224:	ff a3 28 00 00 00    	jmp    *0x28(%ebx)
    122a:	66 0f 1f 44 00 00    	nopw   0x0(%eax,%eax,1)

00001230 <__stack_chk_fail@plt>:
    1230:	f3 0f 1e fb          	endbr32 
    1234:	ff a3 2c 00 00 00    	jmp    *0x2c(%ebx)
    123a:	66 0f 1f 44 00 00    	nopw   0x0(%eax,%eax,1)

00001240 <pthread_mutex_lock@plt>:
    1240:	f3 0f 1e fb          	endbr32 
    1244:	ff a3 30 00 00 00    	jmp    *0x30(%ebx)
    124a:	66 0f 1f 44 00 00    	nopw   0x0(%eax,%eax,1)

00001250 <wprintf@plt>:
    1250:	f3 0f 1e fb          	endbr32 
    1254:	ff a3 34 00 00 00    	jmp    *0x34(%ebx)
    125a:	66 0f 1f 44 00 00    	nopw   0x0(%eax,%eax,1)

00001260 <__isoc99_swscanf@plt>:
    1260:	f3 0f 1e fb          	endbr32 
    1264:	ff a3 38 00 00 00    	jmp    *0x38(%ebx)
    126a:	66 0f 1f 44 00 00    	nopw   0x0(%eax,%eax,1)

00001270 <malloc@plt>:
    1270:	f3 0f 1e fb          	endbr32 
    1274:	ff a3 3c 00 00 00    	jmp    *0x3c(%ebx)
    127a:	66 0f 1f 44 00 00    	nopw   0x0(%eax,%eax,1)

00001280 <puts@plt>:
    1280:	f3 0f 1e fb          	endbr32 
    1284:	ff a3 40 00 00 00    	jmp    *0x40(%ebx)
    128a:	66 0f 1f 44 00 00    	nopw   0x0(%eax,%eax,1)

00001290 <srand@plt>:
    1290:	f3 0f 1e fb          	endbr32 
    1294:	ff a3 44 00 00 00    	jmp    *0x44(%ebx)
    129a:	66 0f 1f 44 00 00    	nopw   0x0(%eax,%eax,1)

000012a0 <__libc_start_main@plt>:
    12a0:	f3 0f 1e fb          	endbr32 
    12a4:	ff a3 48 00 00 00    	jmp    *0x48(%ebx)
    12aa:	66 0f 1f 44 00 00    	nopw   0x0(%eax,%eax,1)

000012b0 <__isoc99_sscanf@plt>:
    12b0:	f3 0f 1e fb          	endbr32 
    12b4:	ff a3 4c 00 00 00    	jmp    *0x4c(%ebx)
    12ba:	66 0f 1f 44 00 00    	nopw   0x0(%eax,%eax,1)

000012c0 <rand@plt>:
    12c0:	f3 0f 1e fb          	endbr32 
    12c4:	ff a3 50 00 00 00    	jmp    *0x50(%ebx)
    12ca:	66 0f 1f 44 00 00    	nopw   0x0(%eax,%eax,1)

000012d0 <pthread_exit@plt>:
    12d0:	f3 0f 1e fb          	endbr32 
    12d4:	ff a3 54 00 00 00    	jmp    *0x54(%ebx)
    12da:	66 0f 1f 44 00 00    	nopw   0x0(%eax,%eax,1)

000012e0 <pthread_join@plt>:
    12e0:	f3 0f 1e fb          	endbr32 
    12e4:	ff a3 58 00 00 00    	jmp    *0x58(%ebx)
    12ea:	66 0f 1f 44 00 00    	nopw   0x0(%eax,%eax,1)

000012f0 <pthread_create@plt>:
    12f0:	f3 0f 1e fb          	endbr32 
    12f4:	ff a3 5c 00 00 00    	jmp    *0x5c(%ebx)
    12fa:	66 0f 1f 44 00 00    	nopw   0x0(%eax,%eax,1)

00001300 <__ctype_b_loc@plt>:
    1300:	f3 0f 1e fb          	endbr32 
    1304:	ff a3 60 00 00 00    	jmp    *0x60(%ebx)
    130a:	66 0f 1f 44 00 00    	nopw   0x0(%eax,%eax,1)

Disassembly of section .text:

00001310 <_start>:
    1310:	f3 0f 1e fb          	endbr32 
    1314:	31 ed                	xor    %ebp,%ebp
    1316:	5e                   	pop    %esi
    1317:	89 e1                	mov    %esp,%ecx
    1319:	83 e4 f0             	and    $0xfffffff0,%esp
    131c:	50                   	push   %eax
    131d:	54                   	push   %esp
    131e:	52                   	push   %edx
    131f:	e8 22 00 00 00       	call   1346 <_start+0x36>
    1324:	81 c3 64 2c 00 00    	add    $0x2c64,%ebx
    132a:	8d 83 f8 df ff ff    	lea    -0x2008(%ebx),%eax
    1330:	50                   	push   %eax
    1331:	8d 83 88 df ff ff    	lea    -0x2078(%ebx),%eax
    1337:	50                   	push   %eax
    1338:	51                   	push   %ecx
    1339:	56                   	push   %esi
    133a:	ff b3 70 00 00 00    	pushl  0x70(%ebx)
    1340:	e8 5b ff ff ff       	call   12a0 <__libc_start_main@plt>
    1345:	f4                   	hlt    
    1346:	8b 1c 24             	mov    (%esp),%ebx
    1349:	c3                   	ret    
    134a:	66 90                	xchg   %ax,%ax
    134c:	66 90                	xchg   %ax,%ax
    134e:	66 90                	xchg   %ax,%ax

00001350 <__x86.get_pc_thunk.bx>:
    1350:	8b 1c 24             	mov    (%esp),%ebx
    1353:	c3                   	ret    
    1354:	66 90                	xchg   %ax,%ax
    1356:	66 90                	xchg   %ax,%ax
    1358:	66 90                	xchg   %ax,%ax
    135a:	66 90                	xchg   %ax,%ax
    135c:	66 90                	xchg   %ax,%ax
    135e:	66 90                	xchg   %ax,%ax

00001360 <deregister_tm_clones>:
    1360:	e8 e4 00 00 00       	call   1449 <__x86.get_pc_thunk.dx>
    1365:	81 c2 23 2c 00 00    	add    $0x2c23,%edx
    136b:	8d 8a 88 00 00 00    	lea    0x88(%edx),%ecx
    1371:	8d 82 88 00 00 00    	lea    0x88(%edx),%eax
    1377:	39 c8                	cmp    %ecx,%eax
    1379:	74 1d                	je     1398 <deregister_tm_clones+0x38>
    137b:	8b 82 64 00 00 00    	mov    0x64(%edx),%eax
    1381:	85 c0                	test   %eax,%eax
    1383:	74 13                	je     1398 <deregister_tm_clones+0x38>
    1385:	55                   	push   %ebp
    1386:	89 e5                	mov    %esp,%ebp
    1388:	83 ec 14             	sub    $0x14,%esp
    138b:	51                   	push   %ecx
    138c:	ff d0                	call   *%eax
    138e:	83 c4 10             	add    $0x10,%esp
    1391:	c9                   	leave  
    1392:	c3                   	ret    
    1393:	8d 74 26 00          	lea    0x0(%esi,%eiz,1),%esi
    1397:	90                   	nop
    1398:	c3                   	ret    
    1399:	8d b4 26 00 00 00 00 	lea    0x0(%esi,%eiz,1),%esi

000013a0 <register_tm_clones>:
    13a0:	e8 a4 00 00 00       	call   1449 <__x86.get_pc_thunk.dx>
    13a5:	81 c2 e3 2b 00 00    	add    $0x2be3,%edx
    13ab:	55                   	push   %ebp
    13ac:	89 e5                	mov    %esp,%ebp
    13ae:	53                   	push   %ebx
    13af:	8d 8a 88 00 00 00    	lea    0x88(%edx),%ecx
    13b5:	8d 82 88 00 00 00    	lea    0x88(%edx),%eax
    13bb:	83 ec 04             	sub    $0x4,%esp
    13be:	29 c8                	sub    %ecx,%eax
    13c0:	89 c3                	mov    %eax,%ebx
    13c2:	c1 e8 1f             	shr    $0x1f,%eax
    13c5:	c1 fb 02             	sar    $0x2,%ebx
    13c8:	01 d8                	add    %ebx,%eax
    13ca:	d1 f8                	sar    %eax
    13cc:	74 14                	je     13e2 <register_tm_clones+0x42>
    13ce:	8b 92 74 00 00 00    	mov    0x74(%edx),%edx
    13d4:	85 d2                	test   %edx,%edx
    13d6:	74 0a                	je     13e2 <register_tm_clones+0x42>
    13d8:	83 ec 08             	sub    $0x8,%esp
    13db:	50                   	push   %eax
    13dc:	51                   	push   %ecx
    13dd:	ff d2                	call   *%edx
    13df:	83 c4 10             	add    $0x10,%esp
    13e2:	8b 5d fc             	mov    -0x4(%ebp),%ebx
    13e5:	c9                   	leave  
    13e6:	c3                   	ret    
    13e7:	8d b4 26 00 00 00 00 	lea    0x0(%esi,%eiz,1),%esi
    13ee:	66 90                	xchg   %ax,%ax

000013f0 <__do_global_dtors_aux>:
    13f0:	f3 0f 1e fb          	endbr32 
    13f4:	55                   	push   %ebp
    13f5:	89 e5                	mov    %esp,%ebp
    13f7:	53                   	push   %ebx
    13f8:	e8 53 ff ff ff       	call   1350 <__x86.get_pc_thunk.bx>
    13fd:	81 c3 8b 2b 00 00    	add    $0x2b8b,%ebx
    1403:	83 ec 04             	sub    $0x4,%esp
    1406:	80 bb 88 00 00 00 00 	cmpb   $0x0,0x88(%ebx)
    140d:	75 27                	jne    1436 <__do_global_dtors_aux+0x46>
    140f:	8b 83 68 00 00 00    	mov    0x68(%ebx),%eax
    1415:	85 c0                	test   %eax,%eax
    1417:	74 11                	je     142a <__do_global_dtors_aux+0x3a>
    1419:	83 ec 0c             	sub    $0xc,%esp
    141c:	ff b3 7c 00 00 00    	pushl  0x7c(%ebx)
    1422:	e8 79 fd ff ff       	call   11a0 <__cxa_finalize@plt>
    1427:	83 c4 10             	add    $0x10,%esp
    142a:	e8 31 ff ff ff       	call   1360 <deregister_tm_clones>
    142f:	c6 83 88 00 00 00 01 	movb   $0x1,0x88(%ebx)
    1436:	8b 5d fc             	mov    -0x4(%ebp),%ebx
    1439:	c9                   	leave  
    143a:	c3                   	ret    
    143b:	8d 74 26 00          	lea    0x0(%esi,%eiz,1),%esi
    143f:	90                   	nop

00001440 <frame_dummy>:
    1440:	f3 0f 1e fb          	endbr32 
    1444:	e9 57 ff ff ff       	jmp    13a0 <register_tm_clones>

00001449 <__x86.get_pc_thunk.dx>:
    1449:	8b 14 24             	mov    (%esp),%edx
    144c:	c3                   	ret    

0000144d <CWE121_Stack_Based_Buffer_Overflow__char_type_overrun_memcpy_03_bad>:
    144d:	f3 0f 1e fb          	endbr32 
    1451:	55                   	push   %ebp
    1452:	89 e5                	mov    %esp,%ebp
    1454:	53                   	push   %ebx
    1455:	83 ec 24             	sub    $0x24,%esp
    1458:	e8 f3 fe ff ff       	call   1350 <__x86.get_pc_thunk.bx>
    145d:	81 c3 2b 2b 00 00    	add    $0x2b2b,%ebx
    1463:	65 a1 14 00 00 00    	mov    %gs:0x14,%eax
    1469:	89 45 f4             	mov    %eax,-0xc(%ebp)
    146c:	31 c0                	xor    %eax,%eax
    146e:	8d 83 80 e0 ff ff    	lea    -0x1f80(%ebx),%eax
    1474:	89 45 ec             	mov    %eax,-0x14(%ebp)
    1477:	8b 45 ec             	mov    -0x14(%ebp),%eax
    147a:	83 ec 0c             	sub    $0xc,%esp
    147d:	50                   	push   %eax
    147e:	e8 6c 03 00 00       	call   17ef <printLine>
    1483:	83 c4 10             	add    $0x10,%esp
    1486:	83 ec 04             	sub    $0x4,%esp
    1489:	6a 18                	push   $0x18
    148b:	8d 83 80 e0 ff ff    	lea    -0x1f80(%ebx),%eax
    1491:	50                   	push   %eax
    1492:	8d 45 dc             	lea    -0x24(%ebp),%eax
    1495:	50                   	push   %eax
    1496:	e8 65 fd ff ff       	call   1200 <memcpy@plt>
    149b:	83 c4 10             	add    $0x10,%esp
    149e:	c6 45 eb 00          	movb   $0x0,-0x15(%ebp)
    14a2:	83 ec 0c             	sub    $0xc,%esp
    14a5:	8d 45 dc             	lea    -0x24(%ebp),%eax
    14a8:	50                   	push   %eax
    14a9:	e8 41 03 00 00       	call   17ef <printLine>
    14ae:	83 c4 10             	add    $0x10,%esp
    14b1:	8b 45 ec             	mov    -0x14(%ebp),%eax
    14b4:	83 ec 0c             	sub    $0xc,%esp
    14b7:	50                   	push   %eax
    14b8:	e8 32 03 00 00       	call   17ef <printLine>
    14bd:	83 c4 10             	add    $0x10,%esp
    14c0:	90                   	nop
    14c1:	8b 45 f4             	mov    -0xc(%ebp),%eax
    14c4:	65 33 05 14 00 00 00 	xor    %gs:0x14,%eax
    14cb:	74 05                	je     14d2 <CWE121_Stack_Based_Buffer_Overflow__char_type_overrun_memcpy_03_bad+0x85>
    14cd:	e8 be 0a 00 00       	call   1f90 <__stack_chk_fail_local>
    14d2:	8b 5d fc             	mov    -0x4(%ebp),%ebx
    14d5:	c9                   	leave  
    14d6:	c3                   	ret    

000014d7 <main>:
    14d7:	f3 0f 1e fb          	endbr32 
    14db:	8d 4c 24 04          	lea    0x4(%esp),%ecx
    14df:	83 e4 f0             	and    $0xfffffff0,%esp
    14e2:	ff 71 fc             	pushl  -0x4(%ecx)
    14e5:	55                   	push   %ebp
    14e6:	89 e5                	mov    %esp,%ebp
    14e8:	53                   	push   %ebx
    14e9:	51                   	push   %ecx
    14ea:	e8 61 fe ff ff       	call   1350 <__x86.get_pc_thunk.bx>
    14ef:	81 c3 99 2a 00 00    	add    $0x2a99,%ebx
    14f5:	83 ec 0c             	sub    $0xc,%esp
    14f8:	6a 00                	push   $0x0
    14fa:	e8 21 fd ff ff       	call   1220 <time@plt>
    14ff:	83 c4 10             	add    $0x10,%esp
    1502:	83 ec 0c             	sub    $0xc,%esp
    1505:	50                   	push   %eax
    1506:	e8 85 fd ff ff       	call   1290 <srand@plt>
    150b:	83 c4 10             	add    $0x10,%esp
    150e:	83 ec 0c             	sub    $0xc,%esp
    1511:	8d 83 a0 e0 ff ff    	lea    -0x1f60(%ebx),%eax
    1517:	50                   	push   %eax
    1518:	e8 d2 02 00 00       	call   17ef <printLine>
    151d:	83 c4 10             	add    $0x10,%esp
    1520:	e8 28 ff ff ff       	call   144d <CWE121_Stack_Based_Buffer_Overflow__char_type_overrun_memcpy_03_bad>
    1525:	83 ec 0c             	sub    $0xc,%esp
    1528:	8d 83 b1 e0 ff ff    	lea    -0x1f4f(%ebx),%eax
    152e:	50                   	push   %eax
    152f:	e8 bb 02 00 00       	call   17ef <printLine>
    1534:	83 c4 10             	add    $0x10,%esp
    1537:	b8 00 00 00 00       	mov    $0x0,%eax
    153c:	8d 65 f8             	lea    -0x8(%ebp),%esp
    153f:	59                   	pop    %ecx
    1540:	5b                   	pop    %ebx
    1541:	5d                   	pop    %ebp
    1542:	8d 61 fc             	lea    -0x4(%ecx),%esp
    1545:	c3                   	ret    

00001546 <internal_start>:
    1546:	f3 0f 1e fb          	endbr32 
    154a:	55                   	push   %ebp
    154b:	89 e5                	mov    %esp,%ebp
    154d:	53                   	push   %ebx
    154e:	83 ec 14             	sub    $0x14,%esp
    1551:	e8 fa fd ff ff       	call   1350 <__x86.get_pc_thunk.bx>
    1556:	81 c3 32 2a 00 00    	add    $0x2a32,%ebx
    155c:	8b 45 08             	mov    0x8(%ebp),%eax
    155f:	89 45 f4             	mov    %eax,-0xc(%ebp)
    1562:	8b 45 f4             	mov    -0xc(%ebp),%eax
    1565:	8b 40 04             	mov    0x4(%eax),%eax
    1568:	8b 55 f4             	mov    -0xc(%ebp),%edx
    156b:	8b 52 08             	mov    0x8(%edx),%edx
    156e:	83 ec 0c             	sub    $0xc,%esp
    1571:	52                   	push   %edx
    1572:	ff d0                	call   *%eax
    1574:	83 c4 10             	add    $0x10,%esp
    1577:	83 ec 0c             	sub    $0xc,%esp
    157a:	6a 00                	push   $0x0
    157c:	e8 4f fd ff ff       	call   12d0 <pthread_exit@plt>

00001581 <stdThreadCreate>:
    1581:	f3 0f 1e fb          	endbr32 
    1585:	55                   	push   %ebp
    1586:	89 e5                	mov    %esp,%ebp
    1588:	53                   	push   %ebx
    1589:	83 ec 24             	sub    $0x24,%esp
    158c:	e8 bf fd ff ff       	call   1350 <__x86.get_pc_thunk.bx>
    1591:	81 c3 f7 29 00 00    	add    $0x29f7,%ebx
    1597:	8b 45 08             	mov    0x8(%ebp),%eax
    159a:	89 45 e4             	mov    %eax,-0x1c(%ebp)
    159d:	8b 45 0c             	mov    0xc(%ebp),%eax
    15a0:	89 45 e0             	mov    %eax,-0x20(%ebp)
    15a3:	8b 45 10             	mov    0x10(%ebp),%eax
    15a6:	89 45 dc             	mov    %eax,-0x24(%ebp)
    15a9:	65 a1 14 00 00 00    	mov    %gs:0x14,%eax
    15af:	89 45 f4             	mov    %eax,-0xc(%ebp)
    15b2:	31 c0                	xor    %eax,%eax
    15b4:	8b 45 dc             	mov    -0x24(%ebp),%eax
    15b7:	c7 00 00 00 00 00    	movl   $0x0,(%eax)
    15bd:	83 ec 0c             	sub    $0xc,%esp
    15c0:	6a 0c                	push   $0xc
    15c2:	e8 a9 fc ff ff       	call   1270 <malloc@plt>
    15c7:	83 c4 10             	add    $0x10,%esp
    15ca:	89 45 f0             	mov    %eax,-0x10(%ebp)
    15cd:	83 7d f0 00          	cmpl   $0x0,-0x10(%ebp)
    15d1:	75 07                	jne    15da <stdThreadCreate+0x59>
    15d3:	b8 00 00 00 00       	mov    $0x0,%eax
    15d8:	eb 58                	jmp    1632 <stdThreadCreate+0xb1>
    15da:	8b 45 f0             	mov    -0x10(%ebp),%eax
    15dd:	8b 55 e4             	mov    -0x1c(%ebp),%edx
    15e0:	89 50 04             	mov    %edx,0x4(%eax)
    15e3:	8b 45 f0             	mov    -0x10(%ebp),%eax
    15e6:	8b 55 e0             	mov    -0x20(%ebp),%edx
    15e9:	89 50 08             	mov    %edx,0x8(%eax)
    15ec:	ff 75 f0             	pushl  -0x10(%ebp)
    15ef:	8d 83 be d5 ff ff    	lea    -0x2a42(%ebx),%eax
    15f5:	50                   	push   %eax
    15f6:	6a 00                	push   $0x0
    15f8:	8d 45 ec             	lea    -0x14(%ebp),%eax
    15fb:	50                   	push   %eax
    15fc:	e8 ef fc ff ff       	call   12f0 <pthread_create@plt>
    1601:	83 c4 10             	add    $0x10,%esp
    1604:	85 c0                	test   %eax,%eax
    1606:	74 15                	je     161d <stdThreadCreate+0x9c>
    1608:	83 ec 0c             	sub    $0xc,%esp
    160b:	ff 75 f0             	pushl  -0x10(%ebp)
    160e:	e8 dd fb ff ff       	call   11f0 <free@plt>
    1613:	83 c4 10             	add    $0x10,%esp
    1616:	b8 00 00 00 00       	mov    $0x0,%eax
    161b:	eb 15                	jmp    1632 <stdThreadCreate+0xb1>
    161d:	8b 55 ec             	mov    -0x14(%ebp),%edx
    1620:	8b 45 f0             	mov    -0x10(%ebp),%eax
    1623:	89 10                	mov    %edx,(%eax)
    1625:	8b 45 dc             	mov    -0x24(%ebp),%eax
    1628:	8b 55 f0             	mov    -0x10(%ebp),%edx
    162b:	89 10                	mov    %edx,(%eax)
    162d:	b8 01 00 00 00       	mov    $0x1,%eax
    1632:	8b 4d f4             	mov    -0xc(%ebp),%ecx
    1635:	65 33 0d 14 00 00 00 	xor    %gs:0x14,%ecx
    163c:	74 05                	je     1643 <stdThreadCreate+0xc2>
    163e:	e8 4d 09 00 00       	call   1f90 <__stack_chk_fail_local>
    1643:	8b 5d fc             	mov    -0x4(%ebp),%ebx
    1646:	c9                   	leave  
    1647:	c3                   	ret    

00001648 <stdThreadJoin>:
    1648:	f3 0f 1e fb          	endbr32 
    164c:	55                   	push   %ebp
    164d:	89 e5                	mov    %esp,%ebp
    164f:	53                   	push   %ebx
    1650:	83 ec 24             	sub    $0x24,%esp
    1653:	e8 93 01 00 00       	call   17eb <__x86.get_pc_thunk.ax>
    1658:	05 30 29 00 00       	add    $0x2930,%eax
    165d:	8b 55 08             	mov    0x8(%ebp),%edx
    1660:	89 55 e4             	mov    %edx,-0x1c(%ebp)
    1663:	65 8b 1d 14 00 00 00 	mov    %gs:0x14,%ebx
    166a:	89 5d f4             	mov    %ebx,-0xc(%ebp)
    166d:	31 db                	xor    %ebx,%ebx
    166f:	8b 55 e4             	mov    -0x1c(%ebp),%edx
    1672:	8b 12                	mov    (%edx),%edx
    1674:	83 ec 08             	sub    $0x8,%esp
    1677:	8d 4d f0             	lea    -0x10(%ebp),%ecx
    167a:	51                   	push   %ecx
    167b:	52                   	push   %edx
    167c:	89 c3                	mov    %eax,%ebx
    167e:	e8 5d fc ff ff       	call   12e0 <pthread_join@plt>
    1683:	83 c4 10             	add    $0x10,%esp
    1686:	85 c0                	test   %eax,%eax
    1688:	74 07                	je     1691 <stdThreadJoin+0x49>
    168a:	b8 00 00 00 00       	mov    $0x0,%eax
    168f:	eb 05                	jmp    1696 <stdThreadJoin+0x4e>
    1691:	b8 01 00 00 00       	mov    $0x1,%eax
    1696:	8b 4d f4             	mov    -0xc(%ebp),%ecx
    1699:	65 33 0d 14 00 00 00 	xor    %gs:0x14,%ecx
    16a0:	74 05                	je     16a7 <stdThreadJoin+0x5f>
    16a2:	e8 e9 08 00 00       	call   1f90 <__stack_chk_fail_local>
    16a7:	8b 5d fc             	mov    -0x4(%ebp),%ebx
    16aa:	c9                   	leave  
    16ab:	c3                   	ret    

000016ac <stdThreadDestroy>:
    16ac:	f3 0f 1e fb          	endbr32 
    16b0:	55                   	push   %ebp
    16b1:	89 e5                	mov    %esp,%ebp
    16b3:	53                   	push   %ebx
    16b4:	83 ec 04             	sub    $0x4,%esp
    16b7:	e8 2f 01 00 00       	call   17eb <__x86.get_pc_thunk.ax>
    16bc:	05 cc 28 00 00       	add    $0x28cc,%eax
    16c1:	83 ec 0c             	sub    $0xc,%esp
    16c4:	ff 75 08             	pushl  0x8(%ebp)
    16c7:	89 c3                	mov    %eax,%ebx
    16c9:	e8 22 fb ff ff       	call   11f0 <free@plt>
    16ce:	83 c4 10             	add    $0x10,%esp
    16d1:	b8 01 00 00 00       	mov    $0x1,%eax
    16d6:	8b 5d fc             	mov    -0x4(%ebp),%ebx
    16d9:	c9                   	leave  
    16da:	c3                   	ret    

000016db <stdThreadLockCreate>:
    16db:	f3 0f 1e fb          	endbr32 
    16df:	55                   	push   %ebp
    16e0:	89 e5                	mov    %esp,%ebp
    16e2:	53                   	push   %ebx
    16e3:	83 ec 14             	sub    $0x14,%esp
    16e6:	e8 65 fc ff ff       	call   1350 <__x86.get_pc_thunk.bx>
    16eb:	81 c3 9d 28 00 00    	add    $0x289d,%ebx
    16f1:	c7 45 f4 00 00 00 00 	movl   $0x0,-0xc(%ebp)
    16f8:	8b 45 08             	mov    0x8(%ebp),%eax
    16fb:	c7 00 00 00 00 00    	movl   $0x0,(%eax)
    1701:	83 ec 0c             	sub    $0xc,%esp
    1704:	6a 18                	push   $0x18
    1706:	e8 65 fb ff ff       	call   1270 <malloc@plt>
    170b:	83 c4 10             	add    $0x10,%esp
    170e:	89 45 f4             	mov    %eax,-0xc(%ebp)
    1711:	83 7d f4 00          	cmpl   $0x0,-0xc(%ebp)
    1715:	75 07                	jne    171e <stdThreadLockCreate+0x43>
    1717:	b8 00 00 00 00       	mov    $0x0,%eax
    171c:	eb 37                	jmp    1755 <stdThreadLockCreate+0x7a>
    171e:	8b 45 f4             	mov    -0xc(%ebp),%eax
    1721:	83 ec 08             	sub    $0x8,%esp
    1724:	6a 00                	push   $0x0
    1726:	50                   	push   %eax
    1727:	e8 e4 fa ff ff       	call   1210 <pthread_mutex_init@plt>
    172c:	83 c4 10             	add    $0x10,%esp
    172f:	85 c0                	test   %eax,%eax
    1731:	74 15                	je     1748 <stdThreadLockCreate+0x6d>
    1733:	83 ec 0c             	sub    $0xc,%esp
    1736:	ff 75 08             	pushl  0x8(%ebp)
    1739:	e8 b2 fa ff ff       	call   11f0 <free@plt>
    173e:	83 c4 10             	add    $0x10,%esp
    1741:	b8 00 00 00 00       	mov    $0x0,%eax
    1746:	eb 0d                	jmp    1755 <stdThreadLockCreate+0x7a>
    1748:	8b 45 08             	mov    0x8(%ebp),%eax
    174b:	8b 55 f4             	mov    -0xc(%ebp),%edx
    174e:	89 10                	mov    %edx,(%eax)
    1750:	b8 01 00 00 00       	mov    $0x1,%eax
    1755:	8b 5d fc             	mov    -0x4(%ebp),%ebx
    1758:	c9                   	leave  
    1759:	c3                   	ret    

0000175a <stdThreadLockAcquire>:
    175a:	f3 0f 1e fb          	endbr32 
    175e:	55                   	push   %ebp
    175f:	89 e5                	mov    %esp,%ebp
    1761:	53                   	push   %ebx
    1762:	83 ec 04             	sub    $0x4,%esp
    1765:	e8 81 00 00 00       	call   17eb <__x86.get_pc_thunk.ax>
    176a:	05 1e 28 00 00       	add    $0x281e,%eax
    176f:	8b 55 08             	mov    0x8(%ebp),%edx
    1772:	83 ec 0c             	sub    $0xc,%esp
    1775:	52                   	push   %edx
    1776:	89 c3                	mov    %eax,%ebx
    1778:	e8 c3 fa ff ff       	call   1240 <pthread_mutex_lock@plt>
    177d:	83 c4 10             	add    $0x10,%esp
    1780:	90                   	nop
    1781:	8b 5d fc             	mov    -0x4(%ebp),%ebx
    1784:	c9                   	leave  
    1785:	c3                   	ret    

00001786 <stdThreadLockRelease>:
    1786:	f3 0f 1e fb          	endbr32 
    178a:	55                   	push   %ebp
    178b:	89 e5                	mov    %esp,%ebp
    178d:	53                   	push   %ebx
    178e:	83 ec 04             	sub    $0x4,%esp
    1791:	e8 55 00 00 00       	call   17eb <__x86.get_pc_thunk.ax>
    1796:	05 f2 27 00 00       	add    $0x27f2,%eax
    179b:	8b 55 08             	mov    0x8(%ebp),%edx
    179e:	83 ec 0c             	sub    $0xc,%esp
    17a1:	52                   	push   %edx
    17a2:	89 c3                	mov    %eax,%ebx
    17a4:	e8 07 fa ff ff       	call   11b0 <pthread_mutex_unlock@plt>
    17a9:	83 c4 10             	add    $0x10,%esp
    17ac:	90                   	nop
    17ad:	8b 5d fc             	mov    -0x4(%ebp),%ebx
    17b0:	c9                   	leave  
    17b1:	c3                   	ret    

000017b2 <stdThreadLockDestroy>:
    17b2:	f3 0f 1e fb          	endbr32 
    17b6:	55                   	push   %ebp
    17b7:	89 e5                	mov    %esp,%ebp
    17b9:	53                   	push   %ebx
    17ba:	83 ec 04             	sub    $0x4,%esp
    17bd:	e8 8e fb ff ff       	call   1350 <__x86.get_pc_thunk.bx>
    17c2:	81 c3 c6 27 00 00    	add    $0x27c6,%ebx
    17c8:	8b 45 08             	mov    0x8(%ebp),%eax
    17cb:	83 ec 0c             	sub    $0xc,%esp
    17ce:	50                   	push   %eax
    17cf:	e8 ec f9 ff ff       	call   11c0 <pthread_mutex_destroy@plt>
    17d4:	83 c4 10             	add    $0x10,%esp
    17d7:	83 ec 0c             	sub    $0xc,%esp
    17da:	ff 75 08             	pushl  0x8(%ebp)
    17dd:	e8 0e fa ff ff       	call   11f0 <free@plt>
    17e2:	83 c4 10             	add    $0x10,%esp
    17e5:	90                   	nop
    17e6:	8b 5d fc             	mov    -0x4(%ebp),%ebx
    17e9:	c9                   	leave  
    17ea:	c3                   	ret    

000017eb <__x86.get_pc_thunk.ax>:
    17eb:	8b 04 24             	mov    (%esp),%eax
    17ee:	c3                   	ret    

000017ef <printLine>:
    17ef:	f3 0f 1e fb          	endbr32 
    17f3:	55                   	push   %ebp
    17f4:	89 e5                	mov    %esp,%ebp
    17f6:	53                   	push   %ebx
    17f7:	83 ec 04             	sub    $0x4,%esp
    17fa:	e8 ec ff ff ff       	call   17eb <__x86.get_pc_thunk.ax>
    17ff:	05 89 27 00 00       	add    $0x2789,%eax
    1804:	83 7d 08 00          	cmpl   $0x0,0x8(%ebp)
    1808:	74 10                	je     181a <printLine+0x2b>
    180a:	83 ec 0c             	sub    $0xc,%esp
    180d:	ff 75 08             	pushl  0x8(%ebp)
    1810:	89 c3                	mov    %eax,%ebx
    1812:	e8 69 fa ff ff       	call   1280 <puts@plt>
    1817:	83 c4 10             	add    $0x10,%esp
    181a:	90                   	nop
    181b:	8b 5d fc             	mov    -0x4(%ebp),%ebx
    181e:	c9                   	leave  
    181f:	c3                   	ret    

00001820 <printWLine>:
    1820:	f3 0f 1e fb          	endbr32 
    1824:	55                   	push   %ebp
    1825:	89 e5                	mov    %esp,%ebp
    1827:	53                   	push   %ebx
    1828:	83 ec 04             	sub    $0x4,%esp
    182b:	e8 bb ff ff ff       	call   17eb <__x86.get_pc_thunk.ax>
    1830:	05 58 27 00 00       	add    $0x2758,%eax
    1835:	83 7d 08 00          	cmpl   $0x0,0x8(%ebp)
    1839:	74 17                	je     1852 <printWLine+0x32>
    183b:	83 ec 08             	sub    $0x8,%esp
    183e:	ff 75 08             	pushl  0x8(%ebp)
    1841:	8d 90 c0 e0 ff ff    	lea    -0x1f40(%eax),%edx
    1847:	52                   	push   %edx
    1848:	89 c3                	mov    %eax,%ebx
    184a:	e8 01 fa ff ff       	call   1250 <wprintf@plt>
    184f:	83 c4 10             	add    $0x10,%esp
    1852:	90                   	nop
    1853:	8b 5d fc             	mov    -0x4(%ebp),%ebx
    1856:	c9                   	leave  
    1857:	c3                   	ret    

00001858 <printIntLine>:
    1858:	f3 0f 1e fb          	endbr32 
    185c:	55                   	push   %ebp
    185d:	89 e5                	mov    %esp,%ebp
    185f:	53                   	push   %ebx
    1860:	83 ec 04             	sub    $0x4,%esp
    1863:	e8 83 ff ff ff       	call   17eb <__x86.get_pc_thunk.ax>
    1868:	05 20 27 00 00       	add    $0x2720,%eax
    186d:	83 ec 08             	sub    $0x8,%esp
    1870:	ff 75 08             	pushl  0x8(%ebp)
    1873:	8d 90 d4 e0 ff ff    	lea    -0x1f2c(%eax),%edx
    1879:	52                   	push   %edx
    187a:	89 c3                	mov    %eax,%ebx
    187c:	e8 4f f9 ff ff       	call   11d0 <printf@plt>
    1881:	83 c4 10             	add    $0x10,%esp
    1884:	90                   	nop
    1885:	8b 5d fc             	mov    -0x4(%ebp),%ebx
    1888:	c9                   	leave  
    1889:	c3                   	ret    

0000188a <printShortLine>:
    188a:	f3 0f 1e fb          	endbr32 
    188e:	55                   	push   %ebp
    188f:	89 e5                	mov    %esp,%ebp
    1891:	53                   	push   %ebx
    1892:	83 ec 14             	sub    $0x14,%esp
    1895:	e8 51 ff ff ff       	call   17eb <__x86.get_pc_thunk.ax>
    189a:	05 ee 26 00 00       	add    $0x26ee,%eax
    189f:	8b 55 08             	mov    0x8(%ebp),%edx
    18a2:	66 89 55 f4          	mov    %dx,-0xc(%ebp)
    18a6:	0f bf 55 f4          	movswl -0xc(%ebp),%edx
    18aa:	83 ec 08             	sub    $0x8,%esp
    18ad:	52                   	push   %edx
    18ae:	8d 90 d8 e0 ff ff    	lea    -0x1f28(%eax),%edx
    18b4:	52                   	push   %edx
    18b5:	89 c3                	mov    %eax,%ebx
    18b7:	e8 14 f9 ff ff       	call   11d0 <printf@plt>
    18bc:	83 c4 10             	add    $0x10,%esp
    18bf:	90                   	nop
    18c0:	8b 5d fc             	mov    -0x4(%ebp),%ebx
    18c3:	c9                   	leave  
    18c4:	c3                   	ret    

000018c5 <printFloatLine>:
    18c5:	f3 0f 1e fb          	endbr32 
    18c9:	55                   	push   %ebp
    18ca:	89 e5                	mov    %esp,%ebp
    18cc:	53                   	push   %ebx
    18cd:	83 ec 04             	sub    $0x4,%esp
    18d0:	e8 16 ff ff ff       	call   17eb <__x86.get_pc_thunk.ax>
    18d5:	05 b3 26 00 00       	add    $0x26b3,%eax
    18da:	d9 45 08             	flds   0x8(%ebp)
    18dd:	83 ec 04             	sub    $0x4,%esp
    18e0:	8d 64 24 f8          	lea    -0x8(%esp),%esp
    18e4:	dd 1c 24             	fstpl  (%esp)
    18e7:	8d 90 dd e0 ff ff    	lea    -0x1f23(%eax),%edx
    18ed:	52                   	push   %edx
    18ee:	89 c3                	mov    %eax,%ebx
    18f0:	e8 db f8 ff ff       	call   11d0 <printf@plt>
    18f5:	83 c4 10             	add    $0x10,%esp
    18f8:	90                   	nop
    18f9:	8b 5d fc             	mov    -0x4(%ebp),%ebx
    18fc:	c9                   	leave  
    18fd:	c3                   	ret    

000018fe <printLongLine>:
    18fe:	f3 0f 1e fb          	endbr32 
    1902:	55                   	push   %ebp
    1903:	89 e5                	mov    %esp,%ebp
    1905:	53                   	push   %ebx
    1906:	83 ec 04             	sub    $0x4,%esp
    1909:	e8 dd fe ff ff       	call   17eb <__x86.get_pc_thunk.ax>
    190e:	05 7a 26 00 00       	add    $0x267a,%eax
    1913:	83 ec 08             	sub    $0x8,%esp
    1916:	ff 75 08             	pushl  0x8(%ebp)
    1919:	8d 90 e1 e0 ff ff    	lea    -0x1f1f(%eax),%edx
    191f:	52                   	push   %edx
    1920:	89 c3                	mov    %eax,%ebx
    1922:	e8 a9 f8 ff ff       	call   11d0 <printf@plt>
    1927:	83 c4 10             	add    $0x10,%esp
    192a:	90                   	nop
    192b:	8b 5d fc             	mov    -0x4(%ebp),%ebx
    192e:	c9                   	leave  
    192f:	c3                   	ret    

00001930 <printLongLongLine>:
    1930:	f3 0f 1e fb          	endbr32 
    1934:	55                   	push   %ebp
    1935:	89 e5                	mov    %esp,%ebp
    1937:	53                   	push   %ebx
    1938:	83 ec 14             	sub    $0x14,%esp
    193b:	e8 ab fe ff ff       	call   17eb <__x86.get_pc_thunk.ax>
    1940:	05 48 26 00 00       	add    $0x2648,%eax
    1945:	8b 55 08             	mov    0x8(%ebp),%edx
    1948:	89 55 f0             	mov    %edx,-0x10(%ebp)
    194b:	8b 55 0c             	mov    0xc(%ebp),%edx
    194e:	89 55 f4             	mov    %edx,-0xc(%ebp)
    1951:	83 ec 04             	sub    $0x4,%esp
    1954:	ff 75 f4             	pushl  -0xc(%ebp)
    1957:	ff 75 f0             	pushl  -0x10(%ebp)
    195a:	8d 90 e1 e0 ff ff    	lea    -0x1f1f(%eax),%edx
    1960:	52                   	push   %edx
    1961:	89 c3                	mov    %eax,%ebx
    1963:	e8 68 f8 ff ff       	call   11d0 <printf@plt>
    1968:	83 c4 10             	add    $0x10,%esp
    196b:	90                   	nop
    196c:	8b 5d fc             	mov    -0x4(%ebp),%ebx
    196f:	c9                   	leave  
    1970:	c3                   	ret    

00001971 <printSizeTLine>:
    1971:	f3 0f 1e fb          	endbr32 
    1975:	55                   	push   %ebp
    1976:	89 e5                	mov    %esp,%ebp
    1978:	53                   	push   %ebx
    1979:	83 ec 04             	sub    $0x4,%esp
    197c:	e8 6a fe ff ff       	call   17eb <__x86.get_pc_thunk.ax>
    1981:	05 07 26 00 00       	add    $0x2607,%eax
    1986:	83 ec 08             	sub    $0x8,%esp
    1989:	ff 75 08             	pushl  0x8(%ebp)
    198c:	8d 90 e6 e0 ff ff    	lea    -0x1f1a(%eax),%edx
    1992:	52                   	push   %edx
    1993:	89 c3                	mov    %eax,%ebx
    1995:	e8 36 f8 ff ff       	call   11d0 <printf@plt>
    199a:	83 c4 10             	add    $0x10,%esp
    199d:	90                   	nop
    199e:	8b 5d fc             	mov    -0x4(%ebp),%ebx
    19a1:	c9                   	leave  
    19a2:	c3                   	ret    

000019a3 <printHexCharLine>:
    19a3:	f3 0f 1e fb          	endbr32 
    19a7:	55                   	push   %ebp
    19a8:	89 e5                	mov    %esp,%ebp
    19aa:	53                   	push   %ebx
    19ab:	83 ec 14             	sub    $0x14,%esp
    19ae:	e8 38 fe ff ff       	call   17eb <__x86.get_pc_thunk.ax>
    19b3:	05 d5 25 00 00       	add    $0x25d5,%eax
    19b8:	8b 55 08             	mov    0x8(%ebp),%edx
    19bb:	88 55 f4             	mov    %dl,-0xc(%ebp)
    19be:	0f be 55 f4          	movsbl -0xc(%ebp),%edx
    19c2:	83 ec 08             	sub    $0x8,%esp
    19c5:	52                   	push   %edx
    19c6:	8d 90 eb e0 ff ff    	lea    -0x1f15(%eax),%edx
    19cc:	52                   	push   %edx
    19cd:	89 c3                	mov    %eax,%ebx
    19cf:	e8 fc f7 ff ff       	call   11d0 <printf@plt>
    19d4:	83 c4 10             	add    $0x10,%esp
    19d7:	90                   	nop
    19d8:	8b 5d fc             	mov    -0x4(%ebp),%ebx
    19db:	c9                   	leave  
    19dc:	c3                   	ret    

000019dd <printWcharLine>:
    19dd:	f3 0f 1e fb          	endbr32 
    19e1:	55                   	push   %ebp
    19e2:	89 e5                	mov    %esp,%ebp
    19e4:	53                   	push   %ebx
    19e5:	83 ec 14             	sub    $0x14,%esp
    19e8:	e8 fe fd ff ff       	call   17eb <__x86.get_pc_thunk.ax>
    19ed:	05 9b 25 00 00       	add    $0x259b,%eax
    19f2:	65 8b 0d 14 00 00 00 	mov    %gs:0x14,%ecx
    19f9:	89 4d f4             	mov    %ecx,-0xc(%ebp)
    19fc:	31 c9                	xor    %ecx,%ecx
    19fe:	8b 55 08             	mov    0x8(%ebp),%edx
    1a01:	89 55 ec             	mov    %edx,-0x14(%ebp)
    1a04:	c7 45 f0 00 00 00 00 	movl   $0x0,-0x10(%ebp)
    1a0b:	83 ec 08             	sub    $0x8,%esp
    1a0e:	8d 55 ec             	lea    -0x14(%ebp),%edx
    1a11:	52                   	push   %edx
    1a12:	8d 90 f1 e0 ff ff    	lea    -0x1f0f(%eax),%edx
    1a18:	52                   	push   %edx
    1a19:	89 c3                	mov    %eax,%ebx
    1a1b:	e8 b0 f7 ff ff       	call   11d0 <printf@plt>
    1a20:	83 c4 10             	add    $0x10,%esp
    1a23:	90                   	nop
    1a24:	8b 45 f4             	mov    -0xc(%ebp),%eax
    1a27:	65 33 05 14 00 00 00 	xor    %gs:0x14,%eax
    1a2e:	74 05                	je     1a35 <printWcharLine+0x58>
    1a30:	e8 5b 05 00 00       	call   1f90 <__stack_chk_fail_local>
    1a35:	8b 5d fc             	mov    -0x4(%ebp),%ebx
    1a38:	c9                   	leave  
    1a39:	c3                   	ret    

00001a3a <printUnsignedLine>:
    1a3a:	f3 0f 1e fb          	endbr32 
    1a3e:	55                   	push   %ebp
    1a3f:	89 e5                	mov    %esp,%ebp
    1a41:	53                   	push   %ebx
    1a42:	83 ec 04             	sub    $0x4,%esp
    1a45:	e8 a1 fd ff ff       	call   17eb <__x86.get_pc_thunk.ax>
    1a4a:	05 3e 25 00 00       	add    $0x253e,%eax
    1a4f:	83 ec 08             	sub    $0x8,%esp
    1a52:	ff 75 08             	pushl  0x8(%ebp)
    1a55:	8d 90 f6 e0 ff ff    	lea    -0x1f0a(%eax),%edx
    1a5b:	52                   	push   %edx
    1a5c:	89 c3                	mov    %eax,%ebx
    1a5e:	e8 6d f7 ff ff       	call   11d0 <printf@plt>
    1a63:	83 c4 10             	add    $0x10,%esp
    1a66:	90                   	nop
    1a67:	8b 5d fc             	mov    -0x4(%ebp),%ebx
    1a6a:	c9                   	leave  
    1a6b:	c3                   	ret    

00001a6c <printHexUnsignedCharLine>:
    1a6c:	f3 0f 1e fb          	endbr32 
    1a70:	55                   	push   %ebp
    1a71:	89 e5                	mov    %esp,%ebp
    1a73:	53                   	push   %ebx
    1a74:	83 ec 14             	sub    $0x14,%esp
    1a77:	e8 6f fd ff ff       	call   17eb <__x86.get_pc_thunk.ax>
    1a7c:	05 0c 25 00 00       	add    $0x250c,%eax
    1a81:	8b 55 08             	mov    0x8(%ebp),%edx
    1a84:	88 55 f4             	mov    %dl,-0xc(%ebp)
    1a87:	0f b6 55 f4          	movzbl -0xc(%ebp),%edx
    1a8b:	83 ec 08             	sub    $0x8,%esp
    1a8e:	52                   	push   %edx
    1a8f:	8d 90 eb e0 ff ff    	lea    -0x1f15(%eax),%edx
    1a95:	52                   	push   %edx
    1a96:	89 c3                	mov    %eax,%ebx
    1a98:	e8 33 f7 ff ff       	call   11d0 <printf@plt>
    1a9d:	83 c4 10             	add    $0x10,%esp
    1aa0:	90                   	nop
    1aa1:	8b 5d fc             	mov    -0x4(%ebp),%ebx
    1aa4:	c9                   	leave  
    1aa5:	c3                   	ret    

00001aa6 <printDoubleLine>:
    1aa6:	f3 0f 1e fb          	endbr32 
    1aaa:	55                   	push   %ebp
    1aab:	89 e5                	mov    %esp,%ebp
    1aad:	53                   	push   %ebx
    1aae:	83 ec 14             	sub    $0x14,%esp
    1ab1:	e8 35 fd ff ff       	call   17eb <__x86.get_pc_thunk.ax>
    1ab6:	05 d2 24 00 00       	add    $0x24d2,%eax
    1abb:	8b 55 08             	mov    0x8(%ebp),%edx
    1abe:	89 55 f0             	mov    %edx,-0x10(%ebp)
    1ac1:	8b 55 0c             	mov    0xc(%ebp),%edx
    1ac4:	89 55 f4             	mov    %edx,-0xc(%ebp)
    1ac7:	83 ec 04             	sub    $0x4,%esp
    1aca:	ff 75 f4             	pushl  -0xc(%ebp)
    1acd:	ff 75 f0             	pushl  -0x10(%ebp)
    1ad0:	8d 90 fa e0 ff ff    	lea    -0x1f06(%eax),%edx
    1ad6:	52                   	push   %edx
    1ad7:	89 c3                	mov    %eax,%ebx
    1ad9:	e8 f2 f6 ff ff       	call   11d0 <printf@plt>
    1ade:	83 c4 10             	add    $0x10,%esp
    1ae1:	90                   	nop
    1ae2:	8b 5d fc             	mov    -0x4(%ebp),%ebx
    1ae5:	c9                   	leave  
    1ae6:	c3                   	ret    

00001ae7 <printStructLine>:
    1ae7:	f3 0f 1e fb          	endbr32 
    1aeb:	55                   	push   %ebp
    1aec:	89 e5                	mov    %esp,%ebp
    1aee:	53                   	push   %ebx
    1aef:	83 ec 04             	sub    $0x4,%esp
    1af2:	e8 f4 fc ff ff       	call   17eb <__x86.get_pc_thunk.ax>
    1af7:	05 91 24 00 00       	add    $0x2491,%eax
    1afc:	8b 55 08             	mov    0x8(%ebp),%edx
    1aff:	8b 4a 04             	mov    0x4(%edx),%ecx
    1b02:	8b 55 08             	mov    0x8(%ebp),%edx
    1b05:	8b 12                	mov    (%edx),%edx
    1b07:	83 ec 04             	sub    $0x4,%esp
    1b0a:	51                   	push   %ecx
    1b0b:	52                   	push   %edx
    1b0c:	8d 90 fe e0 ff ff    	lea    -0x1f02(%eax),%edx
    1b12:	52                   	push   %edx
    1b13:	89 c3                	mov    %eax,%ebx
    1b15:	e8 b6 f6 ff ff       	call   11d0 <printf@plt>
    1b1a:	83 c4 10             	add    $0x10,%esp
    1b1d:	90                   	nop
    1b1e:	8b 5d fc             	mov    -0x4(%ebp),%ebx
    1b21:	c9                   	leave  
    1b22:	c3                   	ret    

00001b23 <printBytesLine>:
    1b23:	f3 0f 1e fb          	endbr32 
    1b27:	55                   	push   %ebp
    1b28:	89 e5                	mov    %esp,%ebp
    1b2a:	53                   	push   %ebx
    1b2b:	83 ec 14             	sub    $0x14,%esp
    1b2e:	e8 1d f8 ff ff       	call   1350 <__x86.get_pc_thunk.bx>
    1b33:	81 c3 55 24 00 00    	add    $0x2455,%ebx
    1b39:	c7 45 f4 00 00 00 00 	movl   $0x0,-0xc(%ebp)
    1b40:	eb 25                	jmp    1b67 <printBytesLine+0x44>
    1b42:	8b 55 08             	mov    0x8(%ebp),%edx
    1b45:	8b 45 f4             	mov    -0xc(%ebp),%eax
    1b48:	01 d0                	add    %edx,%eax
    1b4a:	0f b6 00             	movzbl (%eax),%eax
    1b4d:	0f b6 c0             	movzbl %al,%eax
    1b50:	83 ec 08             	sub    $0x8,%esp
    1b53:	50                   	push   %eax
    1b54:	8d 83 08 e1 ff ff    	lea    -0x1ef8(%ebx),%eax
    1b5a:	50                   	push   %eax
    1b5b:	e8 70 f6 ff ff       	call   11d0 <printf@plt>
    1b60:	83 c4 10             	add    $0x10,%esp
    1b63:	83 45 f4 01          	addl   $0x1,-0xc(%ebp)
    1b67:	8b 45 f4             	mov    -0xc(%ebp),%eax
    1b6a:	3b 45 0c             	cmp    0xc(%ebp),%eax
    1b6d:	72 d3                	jb     1b42 <printBytesLine+0x1f>
    1b6f:	83 ec 0c             	sub    $0xc,%esp
    1b72:	8d 83 0d e1 ff ff    	lea    -0x1ef3(%ebx),%eax
    1b78:	50                   	push   %eax
    1b79:	e8 02 f7 ff ff       	call   1280 <puts@plt>
    1b7e:	83 c4 10             	add    $0x10,%esp
    1b81:	90                   	nop
    1b82:	8b 5d fc             	mov    -0x4(%ebp),%ebx
    1b85:	c9                   	leave  
    1b86:	c3                   	ret    

00001b87 <decodeHexChars>:
    1b87:	f3 0f 1e fb          	endbr32 
    1b8b:	55                   	push   %ebp
    1b8c:	89 e5                	mov    %esp,%ebp
    1b8e:	53                   	push   %ebx
    1b8f:	83 ec 24             	sub    $0x24,%esp
    1b92:	e8 b9 f7 ff ff       	call   1350 <__x86.get_pc_thunk.bx>
    1b97:	81 c3 f1 23 00 00    	add    $0x23f1,%ebx
    1b9d:	8b 45 08             	mov    0x8(%ebp),%eax
    1ba0:	89 45 e4             	mov    %eax,-0x1c(%ebp)
    1ba3:	8b 45 10             	mov    0x10(%ebp),%eax
    1ba6:	89 45 e0             	mov    %eax,-0x20(%ebp)
    1ba9:	65 a1 14 00 00 00    	mov    %gs:0x14,%eax
    1baf:	89 45 f4             	mov    %eax,-0xc(%ebp)
    1bb2:	31 c0                	xor    %eax,%eax
    1bb4:	c7 45 f0 00 00 00 00 	movl   $0x0,-0x10(%ebp)
    1bbb:	eb 35                	jmp    1bf2 <decodeHexChars+0x6b>
    1bbd:	8b 45 f0             	mov    -0x10(%ebp),%eax
    1bc0:	8d 14 00             	lea    (%eax,%eax,1),%edx
    1bc3:	8b 45 e0             	mov    -0x20(%ebp),%eax
    1bc6:	01 c2                	add    %eax,%edx
    1bc8:	83 ec 04             	sub    $0x4,%esp
    1bcb:	8d 45 ec             	lea    -0x14(%ebp),%eax
    1bce:	50                   	push   %eax
    1bcf:	8d 83 08 e1 ff ff    	lea    -0x1ef8(%ebx),%eax
    1bd5:	50                   	push   %eax
    1bd6:	52                   	push   %edx
    1bd7:	e8 d4 f6 ff ff       	call   12b0 <__isoc99_sscanf@plt>
    1bdc:	83 c4 10             	add    $0x10,%esp
    1bdf:	8b 4d ec             	mov    -0x14(%ebp),%ecx
    1be2:	8b 55 e4             	mov    -0x1c(%ebp),%edx
    1be5:	8b 45 f0             	mov    -0x10(%ebp),%eax
    1be8:	01 d0                	add    %edx,%eax
    1bea:	89 ca                	mov    %ecx,%edx
    1bec:	88 10                	mov    %dl,(%eax)
    1bee:	83 45 f0 01          	addl   $0x1,-0x10(%ebp)
    1bf2:	8b 45 f0             	mov    -0x10(%ebp),%eax
    1bf5:	3b 45 0c             	cmp    0xc(%ebp),%eax
    1bf8:	73 5c                	jae    1c56 <decodeHexChars+0xcf>
    1bfa:	e8 01 f7 ff ff       	call   1300 <__ctype_b_loc@plt>
    1bff:	8b 00                	mov    (%eax),%eax
    1c01:	8b 55 f0             	mov    -0x10(%ebp),%edx
    1c04:	8d 0c 12             	lea    (%edx,%edx,1),%ecx
    1c07:	8b 55 e0             	mov    -0x20(%ebp),%edx
    1c0a:	01 ca                	add    %ecx,%edx
    1c0c:	0f b6 12             	movzbl (%edx),%edx
    1c0f:	0f be d2             	movsbl %dl,%edx
    1c12:	01 d2                	add    %edx,%edx
    1c14:	01 d0                	add    %edx,%eax
    1c16:	0f b7 00             	movzwl (%eax),%eax
    1c19:	0f b7 c0             	movzwl %ax,%eax
    1c1c:	25 00 10 00 00       	and    $0x1000,%eax
    1c21:	85 c0                	test   %eax,%eax
    1c23:	74 31                	je     1c56 <decodeHexChars+0xcf>
    1c25:	e8 d6 f6 ff ff       	call   1300 <__ctype_b_loc@plt>
    1c2a:	8b 00                	mov    (%eax),%eax
    1c2c:	8b 55 f0             	mov    -0x10(%ebp),%edx
    1c2f:	01 d2                	add    %edx,%edx
    1c31:	8d 4a 01             	lea    0x1(%edx),%ecx
    1c34:	8b 55 e0             	mov    -0x20(%ebp),%edx
    1c37:	01 ca                	add    %ecx,%edx
    1c39:	0f b6 12             	movzbl (%edx),%edx
    1c3c:	0f be d2             	movsbl %dl,%edx
    1c3f:	01 d2                	add    %edx,%edx
    1c41:	01 d0                	add    %edx,%eax
    1c43:	0f b7 00             	movzwl (%eax),%eax
    1c46:	0f b7 c0             	movzwl %ax,%eax
    1c49:	25 00 10 00 00       	and    $0x1000,%eax
    1c4e:	85 c0                	test   %eax,%eax
    1c50:	0f 85 67 ff ff ff    	jne    1bbd <decodeHexChars+0x36>
    1c56:	8b 45 f0             	mov    -0x10(%ebp),%eax
    1c59:	8b 4d f4             	mov    -0xc(%ebp),%ecx
    1c5c:	65 33 0d 14 00 00 00 	xor    %gs:0x14,%ecx
    1c63:	74 05                	je     1c6a <decodeHexChars+0xe3>
    1c65:	e8 26 03 00 00       	call   1f90 <__stack_chk_fail_local>
    1c6a:	8b 5d fc             	mov    -0x4(%ebp),%ebx
    1c6d:	c9                   	leave  
    1c6e:	c3                   	ret    

00001c6f <decodeHexWChars>:
    1c6f:	f3 0f 1e fb          	endbr32 
    1c73:	55                   	push   %ebp
    1c74:	89 e5                	mov    %esp,%ebp
    1c76:	53                   	push   %ebx
    1c77:	83 ec 24             	sub    $0x24,%esp
    1c7a:	e8 d1 f6 ff ff       	call   1350 <__x86.get_pc_thunk.bx>
    1c7f:	81 c3 09 23 00 00    	add    $0x2309,%ebx
    1c85:	8b 45 08             	mov    0x8(%ebp),%eax
    1c88:	89 45 e4             	mov    %eax,-0x1c(%ebp)
    1c8b:	8b 45 10             	mov    0x10(%ebp),%eax
    1c8e:	89 45 e0             	mov    %eax,-0x20(%ebp)
    1c91:	65 a1 14 00 00 00    	mov    %gs:0x14,%eax
    1c97:	89 45 f4             	mov    %eax,-0xc(%ebp)
    1c9a:	31 c0                	xor    %eax,%eax
    1c9c:	c7 45 f0 00 00 00 00 	movl   $0x0,-0x10(%ebp)
    1ca3:	eb 39                	jmp    1cde <decodeHexWChars+0x6f>
    1ca5:	8b 45 f0             	mov    -0x10(%ebp),%eax
    1ca8:	8d 14 c5 00 00 00 00 	lea    0x0(,%eax,8),%edx
    1caf:	8b 45 e0             	mov    -0x20(%ebp),%eax
    1cb2:	01 c2                	add    %eax,%edx
    1cb4:	83 ec 04             	sub    $0x4,%esp
    1cb7:	8d 45 ec             	lea    -0x14(%ebp),%eax
    1cba:	50                   	push   %eax
    1cbb:	8d 83 10 e1 ff ff    	lea    -0x1ef0(%ebx),%eax
    1cc1:	50                   	push   %eax
    1cc2:	52                   	push   %edx
    1cc3:	e8 98 f5 ff ff       	call   1260 <__isoc99_swscanf@plt>
    1cc8:	83 c4 10             	add    $0x10,%esp
    1ccb:	8b 4d ec             	mov    -0x14(%ebp),%ecx
    1cce:	8b 55 e4             	mov    -0x1c(%ebp),%edx
    1cd1:	8b 45 f0             	mov    -0x10(%ebp),%eax
    1cd4:	01 d0                	add    %edx,%eax
    1cd6:	89 ca                	mov    %ecx,%edx
    1cd8:	88 10                	mov    %dl,(%eax)
    1cda:	83 45 f0 01          	addl   $0x1,-0x10(%ebp)
    1cde:	8b 45 f0             	mov    -0x10(%ebp),%eax
    1ce1:	3b 45 0c             	cmp    0xc(%ebp),%eax
    1ce4:	73 45                	jae    1d2b <decodeHexWChars+0xbc>
    1ce6:	8b 45 f0             	mov    -0x10(%ebp),%eax
    1ce9:	8d 14 c5 00 00 00 00 	lea    0x0(,%eax,8),%edx
    1cf0:	8b 45 e0             	mov    -0x20(%ebp),%eax
    1cf3:	01 d0                	add    %edx,%eax
    1cf5:	8b 00                	mov    (%eax),%eax
    1cf7:	83 ec 0c             	sub    $0xc,%esp
    1cfa:	50                   	push   %eax
    1cfb:	e8 e0 f4 ff ff       	call   11e0 <iswxdigit@plt>
    1d00:	83 c4 10             	add    $0x10,%esp
    1d03:	85 c0                	test   %eax,%eax
    1d05:	74 24                	je     1d2b <decodeHexWChars+0xbc>
    1d07:	8b 45 f0             	mov    -0x10(%ebp),%eax
    1d0a:	c1 e0 03             	shl    $0x3,%eax
    1d0d:	8d 50 04             	lea    0x4(%eax),%edx
    1d10:	8b 45 e0             	mov    -0x20(%ebp),%eax
    1d13:	01 d0                	add    %edx,%eax
    1d15:	8b 00                	mov    (%eax),%eax
    1d17:	83 ec 0c             	sub    $0xc,%esp
    1d1a:	50                   	push   %eax
    1d1b:	e8 c0 f4 ff ff       	call   11e0 <iswxdigit@plt>
    1d20:	83 c4 10             	add    $0x10,%esp
    1d23:	85 c0                	test   %eax,%eax
    1d25:	0f 85 7a ff ff ff    	jne    1ca5 <decodeHexWChars+0x36>
    1d2b:	8b 45 f0             	mov    -0x10(%ebp),%eax
    1d2e:	8b 4d f4             	mov    -0xc(%ebp),%ecx
    1d31:	65 33 0d 14 00 00 00 	xor    %gs:0x14,%ecx
    1d38:	74 05                	je     1d3f <decodeHexWChars+0xd0>
    1d3a:	e8 51 02 00 00       	call   1f90 <__stack_chk_fail_local>
    1d3f:	8b 5d fc             	mov    -0x4(%ebp),%ebx
    1d42:	c9                   	leave  
    1d43:	c3                   	ret    

00001d44 <globalReturnsTrue>:
    1d44:	f3 0f 1e fb          	endbr32 
    1d48:	55                   	push   %ebp
    1d49:	89 e5                	mov    %esp,%ebp
    1d4b:	e8 9b fa ff ff       	call   17eb <__x86.get_pc_thunk.ax>
    1d50:	05 38 22 00 00       	add    $0x2238,%eax
    1d55:	b8 01 00 00 00       	mov    $0x1,%eax
    1d5a:	5d                   	pop    %ebp
    1d5b:	c3                   	ret    

00001d5c <globalReturnsFalse>:
    1d5c:	f3 0f 1e fb          	endbr32 
    1d60:	55                   	push   %ebp
    1d61:	89 e5                	mov    %esp,%ebp
    1d63:	e8 83 fa ff ff       	call   17eb <__x86.get_pc_thunk.ax>
    1d68:	05 20 22 00 00       	add    $0x2220,%eax
    1d6d:	b8 00 00 00 00       	mov    $0x0,%eax
    1d72:	5d                   	pop    %ebp
    1d73:	c3                   	ret    

00001d74 <globalReturnsTrueOrFalse>:
    1d74:	f3 0f 1e fb          	endbr32 
    1d78:	55                   	push   %ebp
    1d79:	89 e5                	mov    %esp,%ebp
    1d7b:	53                   	push   %ebx
    1d7c:	83 ec 04             	sub    $0x4,%esp
    1d7f:	e8 67 fa ff ff       	call   17eb <__x86.get_pc_thunk.ax>
    1d84:	05 04 22 00 00       	add    $0x2204,%eax
    1d89:	89 c3                	mov    %eax,%ebx
    1d8b:	e8 30 f5 ff ff       	call   12c0 <rand@plt>
    1d90:	99                   	cltd   
    1d91:	c1 ea 1f             	shr    $0x1f,%edx
    1d94:	01 d0                	add    %edx,%eax
    1d96:	83 e0 01             	and    $0x1,%eax
    1d99:	29 d0                	sub    %edx,%eax
    1d9b:	83 c4 04             	add    $0x4,%esp
    1d9e:	5b                   	pop    %ebx
    1d9f:	5d                   	pop    %ebp
    1da0:	c3                   	ret    

00001da1 <good1>:
    1da1:	f3 0f 1e fb          	endbr32 
    1da5:	55                   	push   %ebp
    1da6:	89 e5                	mov    %esp,%ebp
    1da8:	e8 3e fa ff ff       	call   17eb <__x86.get_pc_thunk.ax>
    1dad:	05 db 21 00 00       	add    $0x21db,%eax
    1db2:	90                   	nop
    1db3:	5d                   	pop    %ebp
    1db4:	c3                   	ret    

00001db5 <good2>:
    1db5:	f3 0f 1e fb          	endbr32 
    1db9:	55                   	push   %ebp
    1dba:	89 e5                	mov    %esp,%ebp
    1dbc:	e8 2a fa ff ff       	call   17eb <__x86.get_pc_thunk.ax>
    1dc1:	05 c7 21 00 00       	add    $0x21c7,%eax
    1dc6:	90                   	nop
    1dc7:	5d                   	pop    %ebp
    1dc8:	c3                   	ret    

00001dc9 <good3>:
    1dc9:	f3 0f 1e fb          	endbr32 
    1dcd:	55                   	push   %ebp
    1dce:	89 e5                	mov    %esp,%ebp
    1dd0:	e8 16 fa ff ff       	call   17eb <__x86.get_pc_thunk.ax>
    1dd5:	05 b3 21 00 00       	add    $0x21b3,%eax
    1dda:	90                   	nop
    1ddb:	5d                   	pop    %ebp
    1ddc:	c3                   	ret    

00001ddd <good4>:
    1ddd:	f3 0f 1e fb          	endbr32 
    1de1:	55                   	push   %ebp
    1de2:	89 e5                	mov    %esp,%ebp
    1de4:	e8 02 fa ff ff       	call   17eb <__x86.get_pc_thunk.ax>
    1de9:	05 9f 21 00 00       	add    $0x219f,%eax
    1dee:	90                   	nop
    1def:	5d                   	pop    %ebp
    1df0:	c3                   	ret    

00001df1 <good5>:
    1df1:	f3 0f 1e fb          	endbr32 
    1df5:	55                   	push   %ebp
    1df6:	89 e5                	mov    %esp,%ebp
    1df8:	e8 ee f9 ff ff       	call   17eb <__x86.get_pc_thunk.ax>
    1dfd:	05 8b 21 00 00       	add    $0x218b,%eax
    1e02:	90                   	nop
    1e03:	5d                   	pop    %ebp
    1e04:	c3                   	ret    

00001e05 <good6>:
    1e05:	f3 0f 1e fb          	endbr32 
    1e09:	55                   	push   %ebp
    1e0a:	89 e5                	mov    %esp,%ebp
    1e0c:	e8 da f9 ff ff       	call   17eb <__x86.get_pc_thunk.ax>
    1e11:	05 77 21 00 00       	add    $0x2177,%eax
    1e16:	90                   	nop
    1e17:	5d                   	pop    %ebp
    1e18:	c3                   	ret    

00001e19 <good7>:
    1e19:	f3 0f 1e fb          	endbr32 
    1e1d:	55                   	push   %ebp
    1e1e:	89 e5                	mov    %esp,%ebp
    1e20:	e8 c6 f9 ff ff       	call   17eb <__x86.get_pc_thunk.ax>
    1e25:	05 63 21 00 00       	add    $0x2163,%eax
    1e2a:	90                   	nop
    1e2b:	5d                   	pop    %ebp
    1e2c:	c3                   	ret    

00001e2d <good8>:
    1e2d:	f3 0f 1e fb          	endbr32 
    1e31:	55                   	push   %ebp
    1e32:	89 e5                	mov    %esp,%ebp
    1e34:	e8 b2 f9 ff ff       	call   17eb <__x86.get_pc_thunk.ax>
    1e39:	05 4f 21 00 00       	add    $0x214f,%eax
    1e3e:	90                   	nop
    1e3f:	5d                   	pop    %ebp
    1e40:	c3                   	ret    

00001e41 <good9>:
    1e41:	f3 0f 1e fb          	endbr32 
    1e45:	55                   	push   %ebp
    1e46:	89 e5                	mov    %esp,%ebp
    1e48:	e8 9e f9 ff ff       	call   17eb <__x86.get_pc_thunk.ax>
    1e4d:	05 3b 21 00 00       	add    $0x213b,%eax
    1e52:	90                   	nop
    1e53:	5d                   	pop    %ebp
    1e54:	c3                   	ret    

00001e55 <bad1>:
    1e55:	f3 0f 1e fb          	endbr32 
    1e59:	55                   	push   %ebp
    1e5a:	89 e5                	mov    %esp,%ebp
    1e5c:	e8 8a f9 ff ff       	call   17eb <__x86.get_pc_thunk.ax>
    1e61:	05 27 21 00 00       	add    $0x2127,%eax
    1e66:	90                   	nop
    1e67:	5d                   	pop    %ebp
    1e68:	c3                   	ret    

00001e69 <bad2>:
    1e69:	f3 0f 1e fb          	endbr32 
    1e6d:	55                   	push   %ebp
    1e6e:	89 e5                	mov    %esp,%ebp
    1e70:	e8 76 f9 ff ff       	call   17eb <__x86.get_pc_thunk.ax>
    1e75:	05 13 21 00 00       	add    $0x2113,%eax
    1e7a:	90                   	nop
    1e7b:	5d                   	pop    %ebp
    1e7c:	c3                   	ret    

00001e7d <bad3>:
    1e7d:	f3 0f 1e fb          	endbr32 
    1e81:	55                   	push   %ebp
    1e82:	89 e5                	mov    %esp,%ebp
    1e84:	e8 62 f9 ff ff       	call   17eb <__x86.get_pc_thunk.ax>
    1e89:	05 ff 20 00 00       	add    $0x20ff,%eax
    1e8e:	90                   	nop
    1e8f:	5d                   	pop    %ebp
    1e90:	c3                   	ret    

00001e91 <bad4>:
    1e91:	f3 0f 1e fb          	endbr32 
    1e95:	55                   	push   %ebp
    1e96:	89 e5                	mov    %esp,%ebp
    1e98:	e8 4e f9 ff ff       	call   17eb <__x86.get_pc_thunk.ax>
    1e9d:	05 eb 20 00 00       	add    $0x20eb,%eax
    1ea2:	90                   	nop
    1ea3:	5d                   	pop    %ebp
    1ea4:	c3                   	ret    

00001ea5 <bad5>:
    1ea5:	f3 0f 1e fb          	endbr32 
    1ea9:	55                   	push   %ebp
    1eaa:	89 e5                	mov    %esp,%ebp
    1eac:	e8 3a f9 ff ff       	call   17eb <__x86.get_pc_thunk.ax>
    1eb1:	05 d7 20 00 00       	add    $0x20d7,%eax
    1eb6:	90                   	nop
    1eb7:	5d                   	pop    %ebp
    1eb8:	c3                   	ret    

00001eb9 <bad6>:
    1eb9:	f3 0f 1e fb          	endbr32 
    1ebd:	55                   	push   %ebp
    1ebe:	89 e5                	mov    %esp,%ebp
    1ec0:	e8 26 f9 ff ff       	call   17eb <__x86.get_pc_thunk.ax>
    1ec5:	05 c3 20 00 00       	add    $0x20c3,%eax
    1eca:	90                   	nop
    1ecb:	5d                   	pop    %ebp
    1ecc:	c3                   	ret    

00001ecd <bad7>:
    1ecd:	f3 0f 1e fb          	endbr32 
    1ed1:	55                   	push   %ebp
    1ed2:	89 e5                	mov    %esp,%ebp
    1ed4:	e8 12 f9 ff ff       	call   17eb <__x86.get_pc_thunk.ax>
    1ed9:	05 af 20 00 00       	add    $0x20af,%eax
    1ede:	90                   	nop
    1edf:	5d                   	pop    %ebp
    1ee0:	c3                   	ret    

00001ee1 <bad8>:
    1ee1:	f3 0f 1e fb          	endbr32 
    1ee5:	55                   	push   %ebp
    1ee6:	89 e5                	mov    %esp,%ebp
    1ee8:	e8 fe f8 ff ff       	call   17eb <__x86.get_pc_thunk.ax>
    1eed:	05 9b 20 00 00       	add    $0x209b,%eax
    1ef2:	90                   	nop
    1ef3:	5d                   	pop    %ebp
    1ef4:	c3                   	ret    

00001ef5 <bad9>:
    1ef5:	f3 0f 1e fb          	endbr32 
    1ef9:	55                   	push   %ebp
    1efa:	89 e5                	mov    %esp,%ebp
    1efc:	e8 ea f8 ff ff       	call   17eb <__x86.get_pc_thunk.ax>
    1f01:	05 87 20 00 00       	add    $0x2087,%eax
    1f06:	90                   	nop
    1f07:	5d                   	pop    %ebp
    1f08:	c3                   	ret    
    1f09:	66 90                	xchg   %ax,%ax
    1f0b:	66 90                	xchg   %ax,%ax
    1f0d:	66 90                	xchg   %ax,%ax
    1f0f:	90                   	nop

00001f10 <__libc_csu_init>:
    1f10:	f3 0f 1e fb          	endbr32 
    1f14:	55                   	push   %ebp
    1f15:	e8 6b 00 00 00       	call   1f85 <__x86.get_pc_thunk.bp>
    1f1a:	81 c5 6e 20 00 00    	add    $0x206e,%ebp
    1f20:	57                   	push   %edi
    1f21:	56                   	push   %esi
    1f22:	53                   	push   %ebx
    1f23:	83 ec 0c             	sub    $0xc,%esp
    1f26:	89 eb                	mov    %ebp,%ebx
    1f28:	8b 7c 24 28          	mov    0x28(%esp),%edi
    1f2c:	e8 cf f0 ff ff       	call   1000 <_init>
    1f31:	8d 9d fc fe ff ff    	lea    -0x104(%ebp),%ebx
    1f37:	8d 85 f8 fe ff ff    	lea    -0x108(%ebp),%eax
    1f3d:	29 c3                	sub    %eax,%ebx
    1f3f:	c1 fb 02             	sar    $0x2,%ebx
    1f42:	74 29                	je     1f6d <__libc_csu_init+0x5d>
    1f44:	31 f6                	xor    %esi,%esi
    1f46:	8d b4 26 00 00 00 00 	lea    0x0(%esi,%eiz,1),%esi
    1f4d:	8d 76 00             	lea    0x0(%esi),%esi
    1f50:	83 ec 04             	sub    $0x4,%esp
    1f53:	57                   	push   %edi
    1f54:	ff 74 24 2c          	pushl  0x2c(%esp)
    1f58:	ff 74 24 2c          	pushl  0x2c(%esp)
    1f5c:	ff 94 b5 f8 fe ff ff 	call   *-0x108(%ebp,%esi,4)
    1f63:	83 c6 01             	add    $0x1,%esi
    1f66:	83 c4 10             	add    $0x10,%esp
    1f69:	39 f3                	cmp    %esi,%ebx
    1f6b:	75 e3                	jne    1f50 <__libc_csu_init+0x40>
    1f6d:	83 c4 0c             	add    $0xc,%esp
    1f70:	5b                   	pop    %ebx
    1f71:	5e                   	pop    %esi
    1f72:	5f                   	pop    %edi
    1f73:	5d                   	pop    %ebp
    1f74:	c3                   	ret    
    1f75:	8d b4 26 00 00 00 00 	lea    0x0(%esi,%eiz,1),%esi
    1f7c:	8d 74 26 00          	lea    0x0(%esi,%eiz,1),%esi

00001f80 <__libc_csu_fini>:
    1f80:	f3 0f 1e fb          	endbr32 
    1f84:	c3                   	ret    

00001f85 <__x86.get_pc_thunk.bp>:
    1f85:	8b 2c 24             	mov    (%esp),%ebp
    1f88:	c3                   	ret    
    1f89:	66 90                	xchg   %ax,%ax
    1f8b:	66 90                	xchg   %ax,%ax
    1f8d:	66 90                	xchg   %ax,%ax
    1f8f:	90                   	nop

00001f90 <__stack_chk_fail_local>:
    1f90:	f3 0f 1e fb          	endbr32 
    1f94:	53                   	push   %ebx
    1f95:	e8 b6 f3 ff ff       	call   1350 <__x86.get_pc_thunk.bx>
    1f9a:	81 c3 ee 1f 00 00    	add    $0x1fee,%ebx
    1fa0:	83 ec 08             	sub    $0x8,%esp
    1fa3:	e8 88 f2 ff ff       	call   1230 <__stack_chk_fail@plt>

Disassembly of section .fini:

00001fa8 <_fini>:
    1fa8:	f3 0f 1e fb          	endbr32 
    1fac:	53                   	push   %ebx
    1fad:	83 ec 08             	sub    $0x8,%esp
    1fb0:	e8 9b f3 ff ff       	call   1350 <__x86.get_pc_thunk.bx>
    1fb5:	81 c3 d3 1f 00 00    	add    $0x1fd3,%ebx
    1fbb:	83 c4 08             	add    $0x8,%esp
    1fbe:	5b                   	pop    %ebx
    1fbf:	c3                   	ret    
