
boe-example:     file format elf64-x86-64


Disassembly of section .init:

0000000000001000 <_init>:
    1000:	f3 0f 1e fa          	endbr64 
    1004:	48 83 ec 08          	sub    $0x8,%rsp
    1008:	48 8b 05 d9 2f 00 00 	mov    0x2fd9(%rip),%rax        # 3fe8 <__gmon_start__>
    100f:	48 85 c0             	test   %rax,%rax
    1012:	74 02                	je     1016 <_init+0x16>
    1014:	ff d0                	callq  *%rax
    1016:	48 83 c4 08          	add    $0x8,%rsp
    101a:	c3                   	retq   

Disassembly of section .plt:

0000000000001020 <.plt>:
    1020:	ff 35 fa 2e 00 00    	pushq  0x2efa(%rip)        # 3f20 <_GLOBAL_OFFSET_TABLE_+0x8>
    1026:	f2 ff 25 fb 2e 00 00 	bnd jmpq *0x2efb(%rip)        # 3f28 <_GLOBAL_OFFSET_TABLE_+0x10>
    102d:	0f 1f 00             	nopl   (%rax)
    1030:	f3 0f 1e fa          	endbr64 
    1034:	68 00 00 00 00       	pushq  $0x0
    1039:	f2 e9 e1 ff ff ff    	bnd jmpq 1020 <.plt>
    103f:	90                   	nop
    1040:	f3 0f 1e fa          	endbr64 
    1044:	68 01 00 00 00       	pushq  $0x1
    1049:	f2 e9 d1 ff ff ff    	bnd jmpq 1020 <.plt>
    104f:	90                   	nop
    1050:	f3 0f 1e fa          	endbr64 
    1054:	68 02 00 00 00       	pushq  $0x2
    1059:	f2 e9 c1 ff ff ff    	bnd jmpq 1020 <.plt>
    105f:	90                   	nop
    1060:	f3 0f 1e fa          	endbr64 
    1064:	68 03 00 00 00       	pushq  $0x3
    1069:	f2 e9 b1 ff ff ff    	bnd jmpq 1020 <.plt>
    106f:	90                   	nop
    1070:	f3 0f 1e fa          	endbr64 
    1074:	68 04 00 00 00       	pushq  $0x4
    1079:	f2 e9 a1 ff ff ff    	bnd jmpq 1020 <.plt>
    107f:	90                   	nop
    1080:	f3 0f 1e fa          	endbr64 
    1084:	68 05 00 00 00       	pushq  $0x5
    1089:	f2 e9 91 ff ff ff    	bnd jmpq 1020 <.plt>
    108f:	90                   	nop
    1090:	f3 0f 1e fa          	endbr64 
    1094:	68 06 00 00 00       	pushq  $0x6
    1099:	f2 e9 81 ff ff ff    	bnd jmpq 1020 <.plt>
    109f:	90                   	nop
    10a0:	f3 0f 1e fa          	endbr64 
    10a4:	68 07 00 00 00       	pushq  $0x7
    10a9:	f2 e9 71 ff ff ff    	bnd jmpq 1020 <.plt>
    10af:	90                   	nop
    10b0:	f3 0f 1e fa          	endbr64 
    10b4:	68 08 00 00 00       	pushq  $0x8
    10b9:	f2 e9 61 ff ff ff    	bnd jmpq 1020 <.plt>
    10bf:	90                   	nop
    10c0:	f3 0f 1e fa          	endbr64 
    10c4:	68 09 00 00 00       	pushq  $0x9
    10c9:	f2 e9 51 ff ff ff    	bnd jmpq 1020 <.plt>
    10cf:	90                   	nop
    10d0:	f3 0f 1e fa          	endbr64 
    10d4:	68 0a 00 00 00       	pushq  $0xa
    10d9:	f2 e9 41 ff ff ff    	bnd jmpq 1020 <.plt>
    10df:	90                   	nop
    10e0:	f3 0f 1e fa          	endbr64 
    10e4:	68 0b 00 00 00       	pushq  $0xb
    10e9:	f2 e9 31 ff ff ff    	bnd jmpq 1020 <.plt>
    10ef:	90                   	nop
    10f0:	f3 0f 1e fa          	endbr64 
    10f4:	68 0c 00 00 00       	pushq  $0xc
    10f9:	f2 e9 21 ff ff ff    	bnd jmpq 1020 <.plt>
    10ff:	90                   	nop
    1100:	f3 0f 1e fa          	endbr64 
    1104:	68 0d 00 00 00       	pushq  $0xd
    1109:	f2 e9 11 ff ff ff    	bnd jmpq 1020 <.plt>
    110f:	90                   	nop
    1110:	f3 0f 1e fa          	endbr64 
    1114:	68 0e 00 00 00       	pushq  $0xe
    1119:	f2 e9 01 ff ff ff    	bnd jmpq 1020 <.plt>
    111f:	90                   	nop
    1120:	f3 0f 1e fa          	endbr64 
    1124:	68 0f 00 00 00       	pushq  $0xf
    1129:	f2 e9 f1 fe ff ff    	bnd jmpq 1020 <.plt>
    112f:	90                   	nop
    1130:	f3 0f 1e fa          	endbr64 
    1134:	68 10 00 00 00       	pushq  $0x10
    1139:	f2 e9 e1 fe ff ff    	bnd jmpq 1020 <.plt>
    113f:	90                   	nop
    1140:	f3 0f 1e fa          	endbr64 
    1144:	68 11 00 00 00       	pushq  $0x11
    1149:	f2 e9 d1 fe ff ff    	bnd jmpq 1020 <.plt>
    114f:	90                   	nop
    1150:	f3 0f 1e fa          	endbr64 
    1154:	68 12 00 00 00       	pushq  $0x12
    1159:	f2 e9 c1 fe ff ff    	bnd jmpq 1020 <.plt>
    115f:	90                   	nop
    1160:	f3 0f 1e fa          	endbr64 
    1164:	68 13 00 00 00       	pushq  $0x13
    1169:	f2 e9 b1 fe ff ff    	bnd jmpq 1020 <.plt>
    116f:	90                   	nop
    1170:	f3 0f 1e fa          	endbr64 
    1174:	68 14 00 00 00       	pushq  $0x14
    1179:	f2 e9 a1 fe ff ff    	bnd jmpq 1020 <.plt>
    117f:	90                   	nop

Disassembly of section .plt.got:

0000000000001180 <__cxa_finalize@plt>:
    1180:	f3 0f 1e fa          	endbr64 
    1184:	f2 ff 25 6d 2e 00 00 	bnd jmpq *0x2e6d(%rip)        # 3ff8 <__cxa_finalize@GLIBC_2.2.5>
    118b:	0f 1f 44 00 00       	nopl   0x0(%rax,%rax,1)

Disassembly of section .plt.sec:

0000000000001190 <free@plt>:
    1190:	f3 0f 1e fa          	endbr64 
    1194:	f2 ff 25 95 2d 00 00 	bnd jmpq *0x2d95(%rip)        # 3f30 <free@GLIBC_2.2.5>
    119b:	0f 1f 44 00 00       	nopl   0x0(%rax,%rax,1)

00000000000011a0 <pthread_create@plt>:
    11a0:	f3 0f 1e fa          	endbr64 
    11a4:	f2 ff 25 8d 2d 00 00 	bnd jmpq *0x2d8d(%rip)        # 3f38 <pthread_create@GLIBC_2.2.5>
    11ab:	0f 1f 44 00 00       	nopl   0x0(%rax,%rax,1)

00000000000011b0 <puts@plt>:
    11b0:	f3 0f 1e fa          	endbr64 
    11b4:	f2 ff 25 85 2d 00 00 	bnd jmpq *0x2d85(%rip)        # 3f40 <puts@GLIBC_2.2.5>
    11bb:	0f 1f 44 00 00       	nopl   0x0(%rax,%rax,1)

00000000000011c0 <iswxdigit@plt>:
    11c0:	f3 0f 1e fa          	endbr64 
    11c4:	f2 ff 25 7d 2d 00 00 	bnd jmpq *0x2d7d(%rip)        # 3f48 <iswxdigit@GLIBC_2.2.5>
    11cb:	0f 1f 44 00 00       	nopl   0x0(%rax,%rax,1)

00000000000011d0 <__stack_chk_fail@plt>:
    11d0:	f3 0f 1e fa          	endbr64 
    11d4:	f2 ff 25 75 2d 00 00 	bnd jmpq *0x2d75(%rip)        # 3f50 <__stack_chk_fail@GLIBC_2.4>
    11db:	0f 1f 44 00 00       	nopl   0x0(%rax,%rax,1)

00000000000011e0 <printf@plt>:
    11e0:	f3 0f 1e fa          	endbr64 
    11e4:	f2 ff 25 6d 2d 00 00 	bnd jmpq *0x2d6d(%rip)        # 3f58 <printf@GLIBC_2.2.5>
    11eb:	0f 1f 44 00 00       	nopl   0x0(%rax,%rax,1)

00000000000011f0 <pthread_mutex_destroy@plt>:
    11f0:	f3 0f 1e fa          	endbr64 
    11f4:	f2 ff 25 65 2d 00 00 	bnd jmpq *0x2d65(%rip)        # 3f60 <pthread_mutex_destroy@GLIBC_2.2.5>
    11fb:	0f 1f 44 00 00       	nopl   0x0(%rax,%rax,1)

0000000000001200 <srand@plt>:
    1200:	f3 0f 1e fa          	endbr64 
    1204:	f2 ff 25 5d 2d 00 00 	bnd jmpq *0x2d5d(%rip)        # 3f68 <srand@GLIBC_2.2.5>
    120b:	0f 1f 44 00 00       	nopl   0x0(%rax,%rax,1)

0000000000001210 <__isoc99_swscanf@plt>:
    1210:	f3 0f 1e fa          	endbr64 
    1214:	f2 ff 25 55 2d 00 00 	bnd jmpq *0x2d55(%rip)        # 3f70 <__isoc99_swscanf@GLIBC_2.7>
    121b:	0f 1f 44 00 00       	nopl   0x0(%rax,%rax,1)

0000000000001220 <memcpy@plt>:
    1220:	f3 0f 1e fa          	endbr64 
    1224:	f2 ff 25 4d 2d 00 00 	bnd jmpq *0x2d4d(%rip)        # 3f78 <memcpy@GLIBC_2.14>
    122b:	0f 1f 44 00 00       	nopl   0x0(%rax,%rax,1)

0000000000001230 <time@plt>:
    1230:	f3 0f 1e fa          	endbr64 
    1234:	f2 ff 25 45 2d 00 00 	bnd jmpq *0x2d45(%rip)        # 3f80 <time@GLIBC_2.2.5>
    123b:	0f 1f 44 00 00       	nopl   0x0(%rax,%rax,1)

0000000000001240 <pthread_mutex_unlock@plt>:
    1240:	f3 0f 1e fa          	endbr64 
    1244:	f2 ff 25 3d 2d 00 00 	bnd jmpq *0x2d3d(%rip)        # 3f88 <pthread_mutex_unlock@GLIBC_2.2.5>
    124b:	0f 1f 44 00 00       	nopl   0x0(%rax,%rax,1)

0000000000001250 <pthread_exit@plt>:
    1250:	f3 0f 1e fa          	endbr64 
    1254:	f2 ff 25 35 2d 00 00 	bnd jmpq *0x2d35(%rip)        # 3f90 <pthread_exit@GLIBC_2.2.5>
    125b:	0f 1f 44 00 00       	nopl   0x0(%rax,%rax,1)

0000000000001260 <malloc@plt>:
    1260:	f3 0f 1e fa          	endbr64 
    1264:	f2 ff 25 2d 2d 00 00 	bnd jmpq *0x2d2d(%rip)        # 3f98 <malloc@GLIBC_2.2.5>
    126b:	0f 1f 44 00 00       	nopl   0x0(%rax,%rax,1)

0000000000001270 <wprintf@plt>:
    1270:	f3 0f 1e fa          	endbr64 
    1274:	f2 ff 25 25 2d 00 00 	bnd jmpq *0x2d25(%rip)        # 3fa0 <wprintf@GLIBC_2.2.5>
    127b:	0f 1f 44 00 00       	nopl   0x0(%rax,%rax,1)

0000000000001280 <__isoc99_sscanf@plt>:
    1280:	f3 0f 1e fa          	endbr64 
    1284:	f2 ff 25 1d 2d 00 00 	bnd jmpq *0x2d1d(%rip)        # 3fa8 <__isoc99_sscanf@GLIBC_2.7>
    128b:	0f 1f 44 00 00       	nopl   0x0(%rax,%rax,1)

0000000000001290 <pthread_join@plt>:
    1290:	f3 0f 1e fa          	endbr64 
    1294:	f2 ff 25 15 2d 00 00 	bnd jmpq *0x2d15(%rip)        # 3fb0 <pthread_join@GLIBC_2.2.5>
    129b:	0f 1f 44 00 00       	nopl   0x0(%rax,%rax,1)

00000000000012a0 <pthread_mutex_init@plt>:
    12a0:	f3 0f 1e fa          	endbr64 
    12a4:	f2 ff 25 0d 2d 00 00 	bnd jmpq *0x2d0d(%rip)        # 3fb8 <pthread_mutex_init@GLIBC_2.2.5>
    12ab:	0f 1f 44 00 00       	nopl   0x0(%rax,%rax,1)

00000000000012b0 <pthread_mutex_lock@plt>:
    12b0:	f3 0f 1e fa          	endbr64 
    12b4:	f2 ff 25 05 2d 00 00 	bnd jmpq *0x2d05(%rip)        # 3fc0 <pthread_mutex_lock@GLIBC_2.2.5>
    12bb:	0f 1f 44 00 00       	nopl   0x0(%rax,%rax,1)

00000000000012c0 <rand@plt>:
    12c0:	f3 0f 1e fa          	endbr64 
    12c4:	f2 ff 25 fd 2c 00 00 	bnd jmpq *0x2cfd(%rip)        # 3fc8 <rand@GLIBC_2.2.5>
    12cb:	0f 1f 44 00 00       	nopl   0x0(%rax,%rax,1)

00000000000012d0 <__ctype_b_loc@plt>:
    12d0:	f3 0f 1e fa          	endbr64 
    12d4:	f2 ff 25 f5 2c 00 00 	bnd jmpq *0x2cf5(%rip)        # 3fd0 <__ctype_b_loc@GLIBC_2.3>
    12db:	0f 1f 44 00 00       	nopl   0x0(%rax,%rax,1)

Disassembly of section .text:

00000000000012e0 <_start>:
    12e0:	f3 0f 1e fa          	endbr64 
    12e4:	31 ed                	xor    %ebp,%ebp
    12e6:	49 89 d1             	mov    %rdx,%r9
    12e9:	5e                   	pop    %rsi
    12ea:	48 89 e2             	mov    %rsp,%rdx
    12ed:	48 83 e4 f0          	and    $0xfffffffffffffff0,%rsp
    12f1:	50                   	push   %rax
    12f2:	54                   	push   %rsp
    12f3:	4c 8d 05 46 0a 00 00 	lea    0xa46(%rip),%r8        # 1d40 <__libc_csu_fini>
    12fa:	48 8d 0d cf 09 00 00 	lea    0x9cf(%rip),%rcx        # 1cd0 <__libc_csu_init>
    1301:	48 8d 3d 3e 01 00 00 	lea    0x13e(%rip),%rdi        # 1446 <main>
    1308:	ff 15 d2 2c 00 00    	callq  *0x2cd2(%rip)        # 3fe0 <__libc_start_main@GLIBC_2.2.5>
    130e:	f4                   	hlt    
    130f:	90                   	nop

0000000000001310 <deregister_tm_clones>:
    1310:	48 8d 3d 01 2d 00 00 	lea    0x2d01(%rip),%rdi        # 4018 <__TMC_END__>
    1317:	48 8d 05 fa 2c 00 00 	lea    0x2cfa(%rip),%rax        # 4018 <__TMC_END__>
    131e:	48 39 f8             	cmp    %rdi,%rax
    1321:	74 15                	je     1338 <deregister_tm_clones+0x28>
    1323:	48 8b 05 ae 2c 00 00 	mov    0x2cae(%rip),%rax        # 3fd8 <_ITM_deregisterTMCloneTable>
    132a:	48 85 c0             	test   %rax,%rax
    132d:	74 09                	je     1338 <deregister_tm_clones+0x28>
    132f:	ff e0                	jmpq   *%rax
    1331:	0f 1f 80 00 00 00 00 	nopl   0x0(%rax)
    1338:	c3                   	retq   
    1339:	0f 1f 80 00 00 00 00 	nopl   0x0(%rax)

0000000000001340 <register_tm_clones>:
    1340:	48 8d 3d d1 2c 00 00 	lea    0x2cd1(%rip),%rdi        # 4018 <__TMC_END__>
    1347:	48 8d 35 ca 2c 00 00 	lea    0x2cca(%rip),%rsi        # 4018 <__TMC_END__>
    134e:	48 29 fe             	sub    %rdi,%rsi
    1351:	48 89 f0             	mov    %rsi,%rax
    1354:	48 c1 ee 3f          	shr    $0x3f,%rsi
    1358:	48 c1 f8 03          	sar    $0x3,%rax
    135c:	48 01 c6             	add    %rax,%rsi
    135f:	48 d1 fe             	sar    %rsi
    1362:	74 14                	je     1378 <register_tm_clones+0x38>
    1364:	48 8b 05 85 2c 00 00 	mov    0x2c85(%rip),%rax        # 3ff0 <_ITM_registerTMCloneTable>
    136b:	48 85 c0             	test   %rax,%rax
    136e:	74 08                	je     1378 <register_tm_clones+0x38>
    1370:	ff e0                	jmpq   *%rax
    1372:	66 0f 1f 44 00 00    	nopw   0x0(%rax,%rax,1)
    1378:	c3                   	retq   
    1379:	0f 1f 80 00 00 00 00 	nopl   0x0(%rax)

0000000000001380 <__do_global_dtors_aux>:
    1380:	f3 0f 1e fa          	endbr64 
    1384:	80 3d 8d 2c 00 00 00 	cmpb   $0x0,0x2c8d(%rip)        # 4018 <__TMC_END__>
    138b:	75 2b                	jne    13b8 <__do_global_dtors_aux+0x38>
    138d:	55                   	push   %rbp
    138e:	48 83 3d 62 2c 00 00 	cmpq   $0x0,0x2c62(%rip)        # 3ff8 <__cxa_finalize@GLIBC_2.2.5>
    1395:	00 
    1396:	48 89 e5             	mov    %rsp,%rbp
    1399:	74 0c                	je     13a7 <__do_global_dtors_aux+0x27>
    139b:	48 8b 3d 66 2c 00 00 	mov    0x2c66(%rip),%rdi        # 4008 <__dso_handle>
    13a2:	e8 d9 fd ff ff       	callq  1180 <__cxa_finalize@plt>
    13a7:	e8 64 ff ff ff       	callq  1310 <deregister_tm_clones>
    13ac:	c6 05 65 2c 00 00 01 	movb   $0x1,0x2c65(%rip)        # 4018 <__TMC_END__>
    13b3:	5d                   	pop    %rbp
    13b4:	c3                   	retq   
    13b5:	0f 1f 00             	nopl   (%rax)
    13b8:	c3                   	retq   
    13b9:	0f 1f 80 00 00 00 00 	nopl   0x0(%rax)

00000000000013c0 <frame_dummy>:
    13c0:	f3 0f 1e fa          	endbr64 
    13c4:	e9 77 ff ff ff       	jmpq   1340 <register_tm_clones>

00000000000013c9 <CWE121_Stack_Based_Buffer_Overflow__char_type_overrun_memcpy_03_bad>:
    13c9:	f3 0f 1e fa          	endbr64 
    13cd:	55                   	push   %rbp
    13ce:	48 89 e5             	mov    %rsp,%rbp
    13d1:	48 83 ec 30          	sub    $0x30,%rsp
    13d5:	64 48 8b 04 25 28 00 	mov    %fs:0x28,%rax
    13dc:	00 00 
    13de:	48 89 45 f8          	mov    %rax,-0x8(%rbp)
    13e2:	31 c0                	xor    %eax,%eax
    13e4:	48 8d 05 1d 0c 00 00 	lea    0xc1d(%rip),%rax        # 2008 <_IO_stdin_used+0x8>
    13eb:	48 89 45 e0          	mov    %rax,-0x20(%rbp)
    13ef:	48 8b 45 e0          	mov    -0x20(%rbp),%rax
    13f3:	48 89 c7             	mov    %rax,%rdi
    13f6:	e8 98 00 00 00       	callq  1493 <printLine>
    13fb:	48 8d 45 d0          	lea    -0x30(%rbp),%rax
    13ff:	ba 20 00 00 00       	mov    $0x20,%edx
    1404:	48 8d 35 fd 0b 00 00 	lea    0xbfd(%rip),%rsi        # 2008 <_IO_stdin_used+0x8>
    140b:	48 89 c7             	mov    %rax,%rdi
    140e:	e8 0d fe ff ff       	callq  1220 <memcpy@plt>
    1413:	c6 45 df 00          	movb   $0x0,-0x21(%rbp)
    1417:	48 8d 45 d0          	lea    -0x30(%rbp),%rax
    141b:	48 89 c7             	mov    %rax,%rdi
    141e:	e8 70 00 00 00       	callq  1493 <printLine>
    1423:	48 8b 45 e0          	mov    -0x20(%rbp),%rax
    1427:	48 89 c7             	mov    %rax,%rdi
    142a:	e8 64 00 00 00       	callq  1493 <printLine>
    142f:	90                   	nop
    1430:	48 8b 45 f8          	mov    -0x8(%rbp),%rax
    1434:	64 48 33 04 25 28 00 	xor    %fs:0x28,%rax
    143b:	00 00 
    143d:	74 05                	je     1444 <CWE121_Stack_Based_Buffer_Overflow__char_type_overrun_memcpy_03_bad+0x7b>
    143f:	e8 8c fd ff ff       	callq  11d0 <__stack_chk_fail@plt>
    1444:	c9                   	leaveq 
    1445:	c3                   	retq   

0000000000001446 <main>:
    1446:	f3 0f 1e fa          	endbr64 
    144a:	55                   	push   %rbp
    144b:	48 89 e5             	mov    %rsp,%rbp
    144e:	48 83 ec 10          	sub    $0x10,%rsp
    1452:	89 7d fc             	mov    %edi,-0x4(%rbp)
    1455:	48 89 75 f0          	mov    %rsi,-0x10(%rbp)
    1459:	bf 00 00 00 00       	mov    $0x0,%edi
    145e:	e8 cd fd ff ff       	callq  1230 <time@plt>
    1463:	89 c7                	mov    %eax,%edi
    1465:	e8 96 fd ff ff       	callq  1200 <srand@plt>
    146a:	48 8d 3d b7 0b 00 00 	lea    0xbb7(%rip),%rdi        # 2028 <_IO_stdin_used+0x28>
    1471:	e8 1d 00 00 00       	callq  1493 <printLine>
    1476:	b8 00 00 00 00       	mov    $0x0,%eax
    147b:	e8 49 ff ff ff       	callq  13c9 <CWE121_Stack_Based_Buffer_Overflow__char_type_overrun_memcpy_03_bad>
    1480:	48 8d 3d b2 0b 00 00 	lea    0xbb2(%rip),%rdi        # 2039 <_IO_stdin_used+0x39>
    1487:	e8 07 00 00 00       	callq  1493 <printLine>
    148c:	b8 00 00 00 00       	mov    $0x0,%eax
    1491:	c9                   	leaveq 
    1492:	c3                   	retq   

0000000000001493 <printLine>:
    1493:	f3 0f 1e fa          	endbr64 
    1497:	55                   	push   %rbp
    1498:	48 89 e5             	mov    %rsp,%rbp
    149b:	48 83 ec 10          	sub    $0x10,%rsp
    149f:	48 89 7d f8          	mov    %rdi,-0x8(%rbp)
    14a3:	48 83 7d f8 00       	cmpq   $0x0,-0x8(%rbp)
    14a8:	74 0c                	je     14b6 <printLine+0x23>
    14aa:	48 8b 45 f8          	mov    -0x8(%rbp),%rax
    14ae:	48 89 c7             	mov    %rax,%rdi
    14b1:	e8 fa fc ff ff       	callq  11b0 <puts@plt>
    14b6:	90                   	nop
    14b7:	c9                   	leaveq 
    14b8:	c3                   	retq   

00000000000014b9 <printWLine>:
    14b9:	f3 0f 1e fa          	endbr64 
    14bd:	55                   	push   %rbp
    14be:	48 89 e5             	mov    %rsp,%rbp
    14c1:	48 83 ec 10          	sub    $0x10,%rsp
    14c5:	48 89 7d f8          	mov    %rdi,-0x8(%rbp)
    14c9:	48 83 7d f8 00       	cmpq   $0x0,-0x8(%rbp)
    14ce:	74 18                	je     14e8 <printWLine+0x2f>
    14d0:	48 8b 45 f8          	mov    -0x8(%rbp),%rax
    14d4:	48 89 c6             	mov    %rax,%rsi
    14d7:	48 8d 3d 6a 0b 00 00 	lea    0xb6a(%rip),%rdi        # 2048 <_IO_stdin_used+0x48>
    14de:	b8 00 00 00 00       	mov    $0x0,%eax
    14e3:	e8 88 fd ff ff       	callq  1270 <wprintf@plt>
    14e8:	90                   	nop
    14e9:	c9                   	leaveq 
    14ea:	c3                   	retq   

00000000000014eb <printIntLine>:
    14eb:	f3 0f 1e fa          	endbr64 
    14ef:	55                   	push   %rbp
    14f0:	48 89 e5             	mov    %rsp,%rbp
    14f3:	48 83 ec 10          	sub    $0x10,%rsp
    14f7:	89 7d fc             	mov    %edi,-0x4(%rbp)
    14fa:	8b 45 fc             	mov    -0x4(%rbp),%eax
    14fd:	89 c6                	mov    %eax,%esi
    14ff:	48 8d 3d 56 0b 00 00 	lea    0xb56(%rip),%rdi        # 205c <_IO_stdin_used+0x5c>
    1506:	b8 00 00 00 00       	mov    $0x0,%eax
    150b:	e8 d0 fc ff ff       	callq  11e0 <printf@plt>
    1510:	90                   	nop
    1511:	c9                   	leaveq 
    1512:	c3                   	retq   

0000000000001513 <printShortLine>:
    1513:	f3 0f 1e fa          	endbr64 
    1517:	55                   	push   %rbp
    1518:	48 89 e5             	mov    %rsp,%rbp
    151b:	48 83 ec 10          	sub    $0x10,%rsp
    151f:	89 f8                	mov    %edi,%eax
    1521:	66 89 45 fc          	mov    %ax,-0x4(%rbp)
    1525:	0f bf 45 fc          	movswl -0x4(%rbp),%eax
    1529:	89 c6                	mov    %eax,%esi
    152b:	48 8d 3d 2e 0b 00 00 	lea    0xb2e(%rip),%rdi        # 2060 <_IO_stdin_used+0x60>
    1532:	b8 00 00 00 00       	mov    $0x0,%eax
    1537:	e8 a4 fc ff ff       	callq  11e0 <printf@plt>
    153c:	90                   	nop
    153d:	c9                   	leaveq 
    153e:	c3                   	retq   

000000000000153f <printFloatLine>:
    153f:	f3 0f 1e fa          	endbr64 
    1543:	55                   	push   %rbp
    1544:	48 89 e5             	mov    %rsp,%rbp
    1547:	d9 45 10             	flds   0x10(%rbp)
    154a:	48 83 ec 08          	sub    $0x8,%rsp
    154e:	48 8d 64 24 f8       	lea    -0x8(%rsp),%rsp
    1553:	dd 1c 24             	fstpl  (%rsp)
    1556:	48 8d 3d 08 0b 00 00 	lea    0xb08(%rip),%rdi        # 2065 <_IO_stdin_used+0x65>
    155d:	b8 00 00 00 00       	mov    $0x0,%eax
    1562:	e8 79 fc ff ff       	callq  11e0 <printf@plt>
    1567:	48 83 c4 10          	add    $0x10,%rsp
    156b:	90                   	nop
    156c:	c9                   	leaveq 
    156d:	c3                   	retq   

000000000000156e <printLongLine>:
    156e:	f3 0f 1e fa          	endbr64 
    1572:	55                   	push   %rbp
    1573:	48 89 e5             	mov    %rsp,%rbp
    1576:	48 83 ec 10          	sub    $0x10,%rsp
    157a:	48 89 7d f8          	mov    %rdi,-0x8(%rbp)
    157e:	48 8b 45 f8          	mov    -0x8(%rbp),%rax
    1582:	48 89 c6             	mov    %rax,%rsi
    1585:	48 8d 3d dd 0a 00 00 	lea    0xadd(%rip),%rdi        # 2069 <_IO_stdin_used+0x69>
    158c:	b8 00 00 00 00       	mov    $0x0,%eax
    1591:	e8 4a fc ff ff       	callq  11e0 <printf@plt>
    1596:	90                   	nop
    1597:	c9                   	leaveq 
    1598:	c3                   	retq   

0000000000001599 <printLongLongLine>:
    1599:	f3 0f 1e fa          	endbr64 
    159d:	55                   	push   %rbp
    159e:	48 89 e5             	mov    %rsp,%rbp
    15a1:	48 83 ec 10          	sub    $0x10,%rsp
    15a5:	48 89 7d f8          	mov    %rdi,-0x8(%rbp)
    15a9:	48 8b 45 f8          	mov    -0x8(%rbp),%rax
    15ad:	48 89 c6             	mov    %rax,%rsi
    15b0:	48 8d 3d b2 0a 00 00 	lea    0xab2(%rip),%rdi        # 2069 <_IO_stdin_used+0x69>
    15b7:	b8 00 00 00 00       	mov    $0x0,%eax
    15bc:	e8 1f fc ff ff       	callq  11e0 <printf@plt>
    15c1:	90                   	nop
    15c2:	c9                   	leaveq 
    15c3:	c3                   	retq   

00000000000015c4 <printSizeTLine>:
    15c4:	f3 0f 1e fa          	endbr64 
    15c8:	55                   	push   %rbp
    15c9:	48 89 e5             	mov    %rsp,%rbp
    15cc:	48 83 ec 10          	sub    $0x10,%rsp
    15d0:	48 89 7d f8          	mov    %rdi,-0x8(%rbp)
    15d4:	48 8b 45 f8          	mov    -0x8(%rbp),%rax
    15d8:	48 89 c6             	mov    %rax,%rsi
    15db:	48 8d 3d 8c 0a 00 00 	lea    0xa8c(%rip),%rdi        # 206e <_IO_stdin_used+0x6e>
    15e2:	b8 00 00 00 00       	mov    $0x0,%eax
    15e7:	e8 f4 fb ff ff       	callq  11e0 <printf@plt>
    15ec:	90                   	nop
    15ed:	c9                   	leaveq 
    15ee:	c3                   	retq   

00000000000015ef <printHexCharLine>:
    15ef:	f3 0f 1e fa          	endbr64 
    15f3:	55                   	push   %rbp
    15f4:	48 89 e5             	mov    %rsp,%rbp
    15f7:	48 83 ec 10          	sub    $0x10,%rsp
    15fb:	89 f8                	mov    %edi,%eax
    15fd:	88 45 fc             	mov    %al,-0x4(%rbp)
    1600:	0f be 45 fc          	movsbl -0x4(%rbp),%eax
    1604:	89 c6                	mov    %eax,%esi
    1606:	48 8d 3d 66 0a 00 00 	lea    0xa66(%rip),%rdi        # 2073 <_IO_stdin_used+0x73>
    160d:	b8 00 00 00 00       	mov    $0x0,%eax
    1612:	e8 c9 fb ff ff       	callq  11e0 <printf@plt>
    1617:	90                   	nop
    1618:	c9                   	leaveq 
    1619:	c3                   	retq   

000000000000161a <printWcharLine>:
    161a:	f3 0f 1e fa          	endbr64 
    161e:	55                   	push   %rbp
    161f:	48 89 e5             	mov    %rsp,%rbp
    1622:	48 83 ec 20          	sub    $0x20,%rsp
    1626:	89 7d ec             	mov    %edi,-0x14(%rbp)
    1629:	64 48 8b 04 25 28 00 	mov    %fs:0x28,%rax
    1630:	00 00 
    1632:	48 89 45 f8          	mov    %rax,-0x8(%rbp)
    1636:	31 c0                	xor    %eax,%eax
    1638:	8b 45 ec             	mov    -0x14(%rbp),%eax
    163b:	89 45 f0             	mov    %eax,-0x10(%rbp)
    163e:	c7 45 f4 00 00 00 00 	movl   $0x0,-0xc(%rbp)
    1645:	48 8d 45 f0          	lea    -0x10(%rbp),%rax
    1649:	48 89 c6             	mov    %rax,%rsi
    164c:	48 8d 3d 26 0a 00 00 	lea    0xa26(%rip),%rdi        # 2079 <_IO_stdin_used+0x79>
    1653:	b8 00 00 00 00       	mov    $0x0,%eax
    1658:	e8 83 fb ff ff       	callq  11e0 <printf@plt>
    165d:	90                   	nop
    165e:	48 8b 45 f8          	mov    -0x8(%rbp),%rax
    1662:	64 48 33 04 25 28 00 	xor    %fs:0x28,%rax
    1669:	00 00 
    166b:	74 05                	je     1672 <printWcharLine+0x58>
    166d:	e8 5e fb ff ff       	callq  11d0 <__stack_chk_fail@plt>
    1672:	c9                   	leaveq 
    1673:	c3                   	retq   

0000000000001674 <printUnsignedLine>:
    1674:	f3 0f 1e fa          	endbr64 
    1678:	55                   	push   %rbp
    1679:	48 89 e5             	mov    %rsp,%rbp
    167c:	48 83 ec 10          	sub    $0x10,%rsp
    1680:	89 7d fc             	mov    %edi,-0x4(%rbp)
    1683:	8b 45 fc             	mov    -0x4(%rbp),%eax
    1686:	89 c6                	mov    %eax,%esi
    1688:	48 8d 3d ef 09 00 00 	lea    0x9ef(%rip),%rdi        # 207e <_IO_stdin_used+0x7e>
    168f:	b8 00 00 00 00       	mov    $0x0,%eax
    1694:	e8 47 fb ff ff       	callq  11e0 <printf@plt>
    1699:	90                   	nop
    169a:	c9                   	leaveq 
    169b:	c3                   	retq   

000000000000169c <printHexUnsignedCharLine>:
    169c:	f3 0f 1e fa          	endbr64 
    16a0:	55                   	push   %rbp
    16a1:	48 89 e5             	mov    %rsp,%rbp
    16a4:	48 83 ec 10          	sub    $0x10,%rsp
    16a8:	89 f8                	mov    %edi,%eax
    16aa:	88 45 fc             	mov    %al,-0x4(%rbp)
    16ad:	0f b6 45 fc          	movzbl -0x4(%rbp),%eax
    16b1:	89 c6                	mov    %eax,%esi
    16b3:	48 8d 3d b9 09 00 00 	lea    0x9b9(%rip),%rdi        # 2073 <_IO_stdin_used+0x73>
    16ba:	b8 00 00 00 00       	mov    $0x0,%eax
    16bf:	e8 1c fb ff ff       	callq  11e0 <printf@plt>
    16c4:	90                   	nop
    16c5:	c9                   	leaveq 
    16c6:	c3                   	retq   

00000000000016c7 <printDoubleLine>:
    16c7:	f3 0f 1e fa          	endbr64 
    16cb:	55                   	push   %rbp
    16cc:	48 89 e5             	mov    %rsp,%rbp
    16cf:	48 83 ec 08          	sub    $0x8,%rsp
    16d3:	ff 75 10             	pushq  0x10(%rbp)
    16d6:	48 8d 3d a5 09 00 00 	lea    0x9a5(%rip),%rdi        # 2082 <_IO_stdin_used+0x82>
    16dd:	b8 00 00 00 00       	mov    $0x0,%eax
    16e2:	e8 f9 fa ff ff       	callq  11e0 <printf@plt>
    16e7:	48 83 c4 10          	add    $0x10,%rsp
    16eb:	90                   	nop
    16ec:	c9                   	leaveq 
    16ed:	c3                   	retq   

00000000000016ee <printStructLine>:
    16ee:	f3 0f 1e fa          	endbr64 
    16f2:	55                   	push   %rbp
    16f3:	48 89 e5             	mov    %rsp,%rbp
    16f6:	48 83 ec 10          	sub    $0x10,%rsp
    16fa:	48 89 7d f8          	mov    %rdi,-0x8(%rbp)
    16fe:	48 8b 45 f8          	mov    -0x8(%rbp),%rax
    1702:	8b 50 04             	mov    0x4(%rax),%edx
    1705:	48 8b 45 f8          	mov    -0x8(%rbp),%rax
    1709:	8b 00                	mov    (%rax),%eax
    170b:	89 c6                	mov    %eax,%esi
    170d:	48 8d 3d 72 09 00 00 	lea    0x972(%rip),%rdi        # 2086 <_IO_stdin_used+0x86>
    1714:	b8 00 00 00 00       	mov    $0x0,%eax
    1719:	e8 c2 fa ff ff       	callq  11e0 <printf@plt>
    171e:	90                   	nop
    171f:	c9                   	leaveq 
    1720:	c3                   	retq   

0000000000001721 <printBytesLine>:
    1721:	f3 0f 1e fa          	endbr64 
    1725:	55                   	push   %rbp
    1726:	48 89 e5             	mov    %rsp,%rbp
    1729:	48 83 ec 20          	sub    $0x20,%rsp
    172d:	48 89 7d e8          	mov    %rdi,-0x18(%rbp)
    1731:	48 89 75 e0          	mov    %rsi,-0x20(%rbp)
    1735:	48 c7 45 f8 00 00 00 	movq   $0x0,-0x8(%rbp)
    173c:	00 
    173d:	eb 29                	jmp    1768 <printBytesLine+0x47>
    173f:	48 8b 55 e8          	mov    -0x18(%rbp),%rdx
    1743:	48 8b 45 f8          	mov    -0x8(%rbp),%rax
    1747:	48 01 d0             	add    %rdx,%rax
    174a:	0f b6 00             	movzbl (%rax),%eax
    174d:	0f b6 c0             	movzbl %al,%eax
    1750:	89 c6                	mov    %eax,%esi
    1752:	48 8d 3d 37 09 00 00 	lea    0x937(%rip),%rdi        # 2090 <_IO_stdin_used+0x90>
    1759:	b8 00 00 00 00       	mov    $0x0,%eax
    175e:	e8 7d fa ff ff       	callq  11e0 <printf@plt>
    1763:	48 83 45 f8 01       	addq   $0x1,-0x8(%rbp)
    1768:	48 8b 45 f8          	mov    -0x8(%rbp),%rax
    176c:	48 3b 45 e0          	cmp    -0x20(%rbp),%rax
    1770:	72 cd                	jb     173f <printBytesLine+0x1e>
    1772:	48 8d 3d 1c 09 00 00 	lea    0x91c(%rip),%rdi        # 2095 <_IO_stdin_used+0x95>
    1779:	e8 32 fa ff ff       	callq  11b0 <puts@plt>
    177e:	90                   	nop
    177f:	c9                   	leaveq 
    1780:	c3                   	retq   

0000000000001781 <decodeHexChars>:
    1781:	f3 0f 1e fa          	endbr64 
    1785:	55                   	push   %rbp
    1786:	48 89 e5             	mov    %rsp,%rbp
    1789:	48 83 ec 40          	sub    $0x40,%rsp
    178d:	48 89 7d d8          	mov    %rdi,-0x28(%rbp)
    1791:	48 89 75 d0          	mov    %rsi,-0x30(%rbp)
    1795:	48 89 55 c8          	mov    %rdx,-0x38(%rbp)
    1799:	64 48 8b 04 25 28 00 	mov    %fs:0x28,%rax
    17a0:	00 00 
    17a2:	48 89 45 f8          	mov    %rax,-0x8(%rbp)
    17a6:	31 c0                	xor    %eax,%eax
    17a8:	48 c7 45 f0 00 00 00 	movq   $0x0,-0x10(%rbp)
    17af:	00 
    17b0:	eb 42                	jmp    17f4 <decodeHexChars+0x73>
    17b2:	48 8b 45 f0          	mov    -0x10(%rbp),%rax
    17b6:	48 8d 14 00          	lea    (%rax,%rax,1),%rdx
    17ba:	48 8b 45 c8          	mov    -0x38(%rbp),%rax
    17be:	48 8d 0c 02          	lea    (%rdx,%rax,1),%rcx
    17c2:	48 8d 45 ec          	lea    -0x14(%rbp),%rax
    17c6:	48 89 c2             	mov    %rax,%rdx
    17c9:	48 8d 35 c0 08 00 00 	lea    0x8c0(%rip),%rsi        # 2090 <_IO_stdin_used+0x90>
    17d0:	48 89 cf             	mov    %rcx,%rdi
    17d3:	b8 00 00 00 00       	mov    $0x0,%eax
    17d8:	e8 a3 fa ff ff       	callq  1280 <__isoc99_sscanf@plt>
    17dd:	8b 4d ec             	mov    -0x14(%rbp),%ecx
    17e0:	48 8b 55 d8          	mov    -0x28(%rbp),%rdx
    17e4:	48 8b 45 f0          	mov    -0x10(%rbp),%rax
    17e8:	48 01 d0             	add    %rdx,%rax
    17eb:	89 ca                	mov    %ecx,%edx
    17ed:	88 10                	mov    %dl,(%rax)
    17ef:	48 83 45 f0 01       	addq   $0x1,-0x10(%rbp)
    17f4:	48 8b 45 f0          	mov    -0x10(%rbp),%rax
    17f8:	48 3b 45 d0          	cmp    -0x30(%rbp),%rax
    17fc:	73 6d                	jae    186b <decodeHexChars+0xea>
    17fe:	e8 cd fa ff ff       	callq  12d0 <__ctype_b_loc@plt>
    1803:	48 8b 00             	mov    (%rax),%rax
    1806:	48 8b 55 f0          	mov    -0x10(%rbp),%rdx
    180a:	48 8d 0c 12          	lea    (%rdx,%rdx,1),%rcx
    180e:	48 8b 55 c8          	mov    -0x38(%rbp),%rdx
    1812:	48 01 ca             	add    %rcx,%rdx
    1815:	0f b6 12             	movzbl (%rdx),%edx
    1818:	48 0f be d2          	movsbq %dl,%rdx
    181c:	48 01 d2             	add    %rdx,%rdx
    181f:	48 01 d0             	add    %rdx,%rax
    1822:	0f b7 00             	movzwl (%rax),%eax
    1825:	0f b7 c0             	movzwl %ax,%eax
    1828:	25 00 10 00 00       	and    $0x1000,%eax
    182d:	85 c0                	test   %eax,%eax
    182f:	74 3a                	je     186b <decodeHexChars+0xea>
    1831:	e8 9a fa ff ff       	callq  12d0 <__ctype_b_loc@plt>
    1836:	48 8b 00             	mov    (%rax),%rax
    1839:	48 8b 55 f0          	mov    -0x10(%rbp),%rdx
    183d:	48 01 d2             	add    %rdx,%rdx
    1840:	48 8d 4a 01          	lea    0x1(%rdx),%rcx
    1844:	48 8b 55 c8          	mov    -0x38(%rbp),%rdx
    1848:	48 01 ca             	add    %rcx,%rdx
    184b:	0f b6 12             	movzbl (%rdx),%edx
    184e:	48 0f be d2          	movsbq %dl,%rdx
    1852:	48 01 d2             	add    %rdx,%rdx
    1855:	48 01 d0             	add    %rdx,%rax
    1858:	0f b7 00             	movzwl (%rax),%eax
    185b:	0f b7 c0             	movzwl %ax,%eax
    185e:	25 00 10 00 00       	and    $0x1000,%eax
    1863:	85 c0                	test   %eax,%eax
    1865:	0f 85 47 ff ff ff    	jne    17b2 <decodeHexChars+0x31>
    186b:	48 8b 45 f0          	mov    -0x10(%rbp),%rax
    186f:	48 8b 75 f8          	mov    -0x8(%rbp),%rsi
    1873:	64 48 33 34 25 28 00 	xor    %fs:0x28,%rsi
    187a:	00 00 
    187c:	74 05                	je     1883 <decodeHexChars+0x102>
    187e:	e8 4d f9 ff ff       	callq  11d0 <__stack_chk_fail@plt>
    1883:	c9                   	leaveq 
    1884:	c3                   	retq   

0000000000001885 <decodeHexWChars>:
    1885:	f3 0f 1e fa          	endbr64 
    1889:	55                   	push   %rbp
    188a:	48 89 e5             	mov    %rsp,%rbp
    188d:	48 83 ec 40          	sub    $0x40,%rsp
    1891:	48 89 7d d8          	mov    %rdi,-0x28(%rbp)
    1895:	48 89 75 d0          	mov    %rsi,-0x30(%rbp)
    1899:	48 89 55 c8          	mov    %rdx,-0x38(%rbp)
    189d:	64 48 8b 04 25 28 00 	mov    %fs:0x28,%rax
    18a4:	00 00 
    18a6:	48 89 45 f8          	mov    %rax,-0x8(%rbp)
    18aa:	31 c0                	xor    %eax,%eax
    18ac:	48 c7 45 f0 00 00 00 	movq   $0x0,-0x10(%rbp)
    18b3:	00 
    18b4:	eb 46                	jmp    18fc <decodeHexWChars+0x77>
    18b6:	48 8b 45 f0          	mov    -0x10(%rbp),%rax
    18ba:	48 8d 14 c5 00 00 00 	lea    0x0(,%rax,8),%rdx
    18c1:	00 
    18c2:	48 8b 45 c8          	mov    -0x38(%rbp),%rax
    18c6:	48 8d 0c 02          	lea    (%rdx,%rax,1),%rcx
    18ca:	48 8d 45 ec          	lea    -0x14(%rbp),%rax
    18ce:	48 89 c2             	mov    %rax,%rdx
    18d1:	48 8d 35 c0 07 00 00 	lea    0x7c0(%rip),%rsi        # 2098 <_IO_stdin_used+0x98>
    18d8:	48 89 cf             	mov    %rcx,%rdi
    18db:	b8 00 00 00 00       	mov    $0x0,%eax
    18e0:	e8 2b f9 ff ff       	callq  1210 <__isoc99_swscanf@plt>
    18e5:	8b 4d ec             	mov    -0x14(%rbp),%ecx
    18e8:	48 8b 55 d8          	mov    -0x28(%rbp),%rdx
    18ec:	48 8b 45 f0          	mov    -0x10(%rbp),%rax
    18f0:	48 01 d0             	add    %rdx,%rax
    18f3:	89 ca                	mov    %ecx,%edx
    18f5:	88 10                	mov    %dl,(%rax)
    18f7:	48 83 45 f0 01       	addq   $0x1,-0x10(%rbp)
    18fc:	48 8b 45 f0          	mov    -0x10(%rbp),%rax
    1900:	48 3b 45 d0          	cmp    -0x30(%rbp),%rax
    1904:	73 44                	jae    194a <decodeHexWChars+0xc5>
    1906:	48 8b 45 f0          	mov    -0x10(%rbp),%rax
    190a:	48 8d 14 c5 00 00 00 	lea    0x0(,%rax,8),%rdx
    1911:	00 
    1912:	48 8b 45 c8          	mov    -0x38(%rbp),%rax
    1916:	48 01 d0             	add    %rdx,%rax
    1919:	8b 00                	mov    (%rax),%eax
    191b:	89 c7                	mov    %eax,%edi
    191d:	e8 9e f8 ff ff       	callq  11c0 <iswxdigit@plt>
    1922:	85 c0                	test   %eax,%eax
    1924:	74 24                	je     194a <decodeHexWChars+0xc5>
    1926:	48 8b 45 f0          	mov    -0x10(%rbp),%rax
    192a:	48 c1 e0 03          	shl    $0x3,%rax
    192e:	48 8d 50 04          	lea    0x4(%rax),%rdx
    1932:	48 8b 45 c8          	mov    -0x38(%rbp),%rax
    1936:	48 01 d0             	add    %rdx,%rax
    1939:	8b 00                	mov    (%rax),%eax
    193b:	89 c7                	mov    %eax,%edi
    193d:	e8 7e f8 ff ff       	callq  11c0 <iswxdigit@plt>
    1942:	85 c0                	test   %eax,%eax
    1944:	0f 85 6c ff ff ff    	jne    18b6 <decodeHexWChars+0x31>
    194a:	48 8b 45 f0          	mov    -0x10(%rbp),%rax
    194e:	48 8b 75 f8          	mov    -0x8(%rbp),%rsi
    1952:	64 48 33 34 25 28 00 	xor    %fs:0x28,%rsi
    1959:	00 00 
    195b:	74 05                	je     1962 <decodeHexWChars+0xdd>
    195d:	e8 6e f8 ff ff       	callq  11d0 <__stack_chk_fail@plt>
    1962:	c9                   	leaveq 
    1963:	c3                   	retq   

0000000000001964 <globalReturnsTrue>:
    1964:	f3 0f 1e fa          	endbr64 
    1968:	55                   	push   %rbp
    1969:	48 89 e5             	mov    %rsp,%rbp
    196c:	b8 01 00 00 00       	mov    $0x1,%eax
    1971:	5d                   	pop    %rbp
    1972:	c3                   	retq   

0000000000001973 <globalReturnsFalse>:
    1973:	f3 0f 1e fa          	endbr64 
    1977:	55                   	push   %rbp
    1978:	48 89 e5             	mov    %rsp,%rbp
    197b:	b8 00 00 00 00       	mov    $0x0,%eax
    1980:	5d                   	pop    %rbp
    1981:	c3                   	retq   

0000000000001982 <globalReturnsTrueOrFalse>:
    1982:	f3 0f 1e fa          	endbr64 
    1986:	55                   	push   %rbp
    1987:	48 89 e5             	mov    %rsp,%rbp
    198a:	e8 31 f9 ff ff       	callq  12c0 <rand@plt>
    198f:	99                   	cltd   
    1990:	c1 ea 1f             	shr    $0x1f,%edx
    1993:	01 d0                	add    %edx,%eax
    1995:	83 e0 01             	and    $0x1,%eax
    1998:	29 d0                	sub    %edx,%eax
    199a:	5d                   	pop    %rbp
    199b:	c3                   	retq   

000000000000199c <good1>:
    199c:	f3 0f 1e fa          	endbr64 
    19a0:	55                   	push   %rbp
    19a1:	48 89 e5             	mov    %rsp,%rbp
    19a4:	90                   	nop
    19a5:	5d                   	pop    %rbp
    19a6:	c3                   	retq   

00000000000019a7 <good2>:
    19a7:	f3 0f 1e fa          	endbr64 
    19ab:	55                   	push   %rbp
    19ac:	48 89 e5             	mov    %rsp,%rbp
    19af:	90                   	nop
    19b0:	5d                   	pop    %rbp
    19b1:	c3                   	retq   

00000000000019b2 <good3>:
    19b2:	f3 0f 1e fa          	endbr64 
    19b6:	55                   	push   %rbp
    19b7:	48 89 e5             	mov    %rsp,%rbp
    19ba:	90                   	nop
    19bb:	5d                   	pop    %rbp
    19bc:	c3                   	retq   

00000000000019bd <good4>:
    19bd:	f3 0f 1e fa          	endbr64 
    19c1:	55                   	push   %rbp
    19c2:	48 89 e5             	mov    %rsp,%rbp
    19c5:	90                   	nop
    19c6:	5d                   	pop    %rbp
    19c7:	c3                   	retq   

00000000000019c8 <good5>:
    19c8:	f3 0f 1e fa          	endbr64 
    19cc:	55                   	push   %rbp
    19cd:	48 89 e5             	mov    %rsp,%rbp
    19d0:	90                   	nop
    19d1:	5d                   	pop    %rbp
    19d2:	c3                   	retq   

00000000000019d3 <good6>:
    19d3:	f3 0f 1e fa          	endbr64 
    19d7:	55                   	push   %rbp
    19d8:	48 89 e5             	mov    %rsp,%rbp
    19db:	90                   	nop
    19dc:	5d                   	pop    %rbp
    19dd:	c3                   	retq   

00000000000019de <good7>:
    19de:	f3 0f 1e fa          	endbr64 
    19e2:	55                   	push   %rbp
    19e3:	48 89 e5             	mov    %rsp,%rbp
    19e6:	90                   	nop
    19e7:	5d                   	pop    %rbp
    19e8:	c3                   	retq   

00000000000019e9 <good8>:
    19e9:	f3 0f 1e fa          	endbr64 
    19ed:	55                   	push   %rbp
    19ee:	48 89 e5             	mov    %rsp,%rbp
    19f1:	90                   	nop
    19f2:	5d                   	pop    %rbp
    19f3:	c3                   	retq   

00000000000019f4 <good9>:
    19f4:	f3 0f 1e fa          	endbr64 
    19f8:	55                   	push   %rbp
    19f9:	48 89 e5             	mov    %rsp,%rbp
    19fc:	90                   	nop
    19fd:	5d                   	pop    %rbp
    19fe:	c3                   	retq   

00000000000019ff <bad1>:
    19ff:	f3 0f 1e fa          	endbr64 
    1a03:	55                   	push   %rbp
    1a04:	48 89 e5             	mov    %rsp,%rbp
    1a07:	90                   	nop
    1a08:	5d                   	pop    %rbp
    1a09:	c3                   	retq   

0000000000001a0a <bad2>:
    1a0a:	f3 0f 1e fa          	endbr64 
    1a0e:	55                   	push   %rbp
    1a0f:	48 89 e5             	mov    %rsp,%rbp
    1a12:	90                   	nop
    1a13:	5d                   	pop    %rbp
    1a14:	c3                   	retq   

0000000000001a15 <bad3>:
    1a15:	f3 0f 1e fa          	endbr64 
    1a19:	55                   	push   %rbp
    1a1a:	48 89 e5             	mov    %rsp,%rbp
    1a1d:	90                   	nop
    1a1e:	5d                   	pop    %rbp
    1a1f:	c3                   	retq   

0000000000001a20 <bad4>:
    1a20:	f3 0f 1e fa          	endbr64 
    1a24:	55                   	push   %rbp
    1a25:	48 89 e5             	mov    %rsp,%rbp
    1a28:	90                   	nop
    1a29:	5d                   	pop    %rbp
    1a2a:	c3                   	retq   

0000000000001a2b <bad5>:
    1a2b:	f3 0f 1e fa          	endbr64 
    1a2f:	55                   	push   %rbp
    1a30:	48 89 e5             	mov    %rsp,%rbp
    1a33:	90                   	nop
    1a34:	5d                   	pop    %rbp
    1a35:	c3                   	retq   

0000000000001a36 <bad6>:
    1a36:	f3 0f 1e fa          	endbr64 
    1a3a:	55                   	push   %rbp
    1a3b:	48 89 e5             	mov    %rsp,%rbp
    1a3e:	90                   	nop
    1a3f:	5d                   	pop    %rbp
    1a40:	c3                   	retq   

0000000000001a41 <bad7>:
    1a41:	f3 0f 1e fa          	endbr64 
    1a45:	55                   	push   %rbp
    1a46:	48 89 e5             	mov    %rsp,%rbp
    1a49:	90                   	nop
    1a4a:	5d                   	pop    %rbp
    1a4b:	c3                   	retq   

0000000000001a4c <bad8>:
    1a4c:	f3 0f 1e fa          	endbr64 
    1a50:	55                   	push   %rbp
    1a51:	48 89 e5             	mov    %rsp,%rbp
    1a54:	90                   	nop
    1a55:	5d                   	pop    %rbp
    1a56:	c3                   	retq   

0000000000001a57 <bad9>:
    1a57:	f3 0f 1e fa          	endbr64 
    1a5b:	55                   	push   %rbp
    1a5c:	48 89 e5             	mov    %rsp,%rbp
    1a5f:	90                   	nop
    1a60:	5d                   	pop    %rbp
    1a61:	c3                   	retq   

0000000000001a62 <internal_start>:
    1a62:	f3 0f 1e fa          	endbr64 
    1a66:	55                   	push   %rbp
    1a67:	48 89 e5             	mov    %rsp,%rbp
    1a6a:	48 83 ec 20          	sub    $0x20,%rsp
    1a6e:	48 89 7d e8          	mov    %rdi,-0x18(%rbp)
    1a72:	48 8b 45 e8          	mov    -0x18(%rbp),%rax
    1a76:	48 89 45 f8          	mov    %rax,-0x8(%rbp)
    1a7a:	48 8b 45 f8          	mov    -0x8(%rbp),%rax
    1a7e:	48 8b 50 08          	mov    0x8(%rax),%rdx
    1a82:	48 8b 45 f8          	mov    -0x8(%rbp),%rax
    1a86:	48 8b 40 10          	mov    0x10(%rax),%rax
    1a8a:	48 89 c7             	mov    %rax,%rdi
    1a8d:	ff d2                	callq  *%rdx
    1a8f:	bf 00 00 00 00       	mov    $0x0,%edi
    1a94:	e8 b7 f7 ff ff       	callq  1250 <pthread_exit@plt>

0000000000001a99 <stdThreadCreate>:
    1a99:	f3 0f 1e fa          	endbr64 
    1a9d:	55                   	push   %rbp
    1a9e:	48 89 e5             	mov    %rsp,%rbp
    1aa1:	48 83 ec 40          	sub    $0x40,%rsp
    1aa5:	48 89 7d d8          	mov    %rdi,-0x28(%rbp)
    1aa9:	48 89 75 d0          	mov    %rsi,-0x30(%rbp)
    1aad:	48 89 55 c8          	mov    %rdx,-0x38(%rbp)
    1ab1:	64 48 8b 04 25 28 00 	mov    %fs:0x28,%rax
    1ab8:	00 00 
    1aba:	48 89 45 f8          	mov    %rax,-0x8(%rbp)
    1abe:	31 c0                	xor    %eax,%eax
    1ac0:	48 8b 45 c8          	mov    -0x38(%rbp),%rax
    1ac4:	48 c7 00 00 00 00 00 	movq   $0x0,(%rax)
    1acb:	bf 18 00 00 00       	mov    $0x18,%edi
    1ad0:	e8 8b f7 ff ff       	callq  1260 <malloc@plt>
    1ad5:	48 89 45 f0          	mov    %rax,-0x10(%rbp)
    1ad9:	48 83 7d f0 00       	cmpq   $0x0,-0x10(%rbp)
    1ade:	75 07                	jne    1ae7 <stdThreadCreate+0x4e>
    1ae0:	b8 00 00 00 00       	mov    $0x0,%eax
    1ae5:	eb 69                	jmp    1b50 <stdThreadCreate+0xb7>
    1ae7:	48 8b 45 f0          	mov    -0x10(%rbp),%rax
    1aeb:	48 8b 55 d8          	mov    -0x28(%rbp),%rdx
    1aef:	48 89 50 08          	mov    %rdx,0x8(%rax)
    1af3:	48 8b 45 f0          	mov    -0x10(%rbp),%rax
    1af7:	48 8b 55 d0          	mov    -0x30(%rbp),%rdx
    1afb:	48 89 50 10          	mov    %rdx,0x10(%rax)
    1aff:	48 8b 55 f0          	mov    -0x10(%rbp),%rdx
    1b03:	48 8d 45 e8          	lea    -0x18(%rbp),%rax
    1b07:	48 89 d1             	mov    %rdx,%rcx
    1b0a:	48 8d 15 51 ff ff ff 	lea    -0xaf(%rip),%rdx        # 1a62 <internal_start>
    1b11:	be 00 00 00 00       	mov    $0x0,%esi
    1b16:	48 89 c7             	mov    %rax,%rdi
    1b19:	e8 82 f6 ff ff       	callq  11a0 <pthread_create@plt>
    1b1e:	85 c0                	test   %eax,%eax
    1b20:	74 13                	je     1b35 <stdThreadCreate+0x9c>
    1b22:	48 8b 45 f0          	mov    -0x10(%rbp),%rax
    1b26:	48 89 c7             	mov    %rax,%rdi
    1b29:	e8 62 f6 ff ff       	callq  1190 <free@plt>
    1b2e:	b8 00 00 00 00       	mov    $0x0,%eax
    1b33:	eb 1b                	jmp    1b50 <stdThreadCreate+0xb7>
    1b35:	48 8b 55 e8          	mov    -0x18(%rbp),%rdx
    1b39:	48 8b 45 f0          	mov    -0x10(%rbp),%rax
    1b3d:	48 89 10             	mov    %rdx,(%rax)
    1b40:	48 8b 45 c8          	mov    -0x38(%rbp),%rax
    1b44:	48 8b 55 f0          	mov    -0x10(%rbp),%rdx
    1b48:	48 89 10             	mov    %rdx,(%rax)
    1b4b:	b8 01 00 00 00       	mov    $0x1,%eax
    1b50:	48 8b 4d f8          	mov    -0x8(%rbp),%rcx
    1b54:	64 48 33 0c 25 28 00 	xor    %fs:0x28,%rcx
    1b5b:	00 00 
    1b5d:	74 05                	je     1b64 <stdThreadCreate+0xcb>
    1b5f:	e8 6c f6 ff ff       	callq  11d0 <__stack_chk_fail@plt>
    1b64:	c9                   	leaveq 
    1b65:	c3                   	retq   

0000000000001b66 <stdThreadJoin>:
    1b66:	f3 0f 1e fa          	endbr64 
    1b6a:	55                   	push   %rbp
    1b6b:	48 89 e5             	mov    %rsp,%rbp
    1b6e:	48 83 ec 20          	sub    $0x20,%rsp
    1b72:	48 89 7d e8          	mov    %rdi,-0x18(%rbp)
    1b76:	64 48 8b 04 25 28 00 	mov    %fs:0x28,%rax
    1b7d:	00 00 
    1b7f:	48 89 45 f8          	mov    %rax,-0x8(%rbp)
    1b83:	31 c0                	xor    %eax,%eax
    1b85:	48 8b 45 e8          	mov    -0x18(%rbp),%rax
    1b89:	48 8b 00             	mov    (%rax),%rax
    1b8c:	48 8d 55 f0          	lea    -0x10(%rbp),%rdx
    1b90:	48 89 d6             	mov    %rdx,%rsi
    1b93:	48 89 c7             	mov    %rax,%rdi
    1b96:	e8 f5 f6 ff ff       	callq  1290 <pthread_join@plt>
    1b9b:	85 c0                	test   %eax,%eax
    1b9d:	74 07                	je     1ba6 <stdThreadJoin+0x40>
    1b9f:	b8 00 00 00 00       	mov    $0x0,%eax
    1ba4:	eb 05                	jmp    1bab <stdThreadJoin+0x45>
    1ba6:	b8 01 00 00 00       	mov    $0x1,%eax
    1bab:	48 8b 4d f8          	mov    -0x8(%rbp),%rcx
    1baf:	64 48 33 0c 25 28 00 	xor    %fs:0x28,%rcx
    1bb6:	00 00 
    1bb8:	74 05                	je     1bbf <stdThreadJoin+0x59>
    1bba:	e8 11 f6 ff ff       	callq  11d0 <__stack_chk_fail@plt>
    1bbf:	c9                   	leaveq 
    1bc0:	c3                   	retq   

0000000000001bc1 <stdThreadDestroy>:
    1bc1:	f3 0f 1e fa          	endbr64 
    1bc5:	55                   	push   %rbp
    1bc6:	48 89 e5             	mov    %rsp,%rbp
    1bc9:	48 83 ec 10          	sub    $0x10,%rsp
    1bcd:	48 89 7d f8          	mov    %rdi,-0x8(%rbp)
    1bd1:	48 8b 45 f8          	mov    -0x8(%rbp),%rax
    1bd5:	48 89 c7             	mov    %rax,%rdi
    1bd8:	e8 b3 f5 ff ff       	callq  1190 <free@plt>
    1bdd:	b8 01 00 00 00       	mov    $0x1,%eax
    1be2:	c9                   	leaveq 
    1be3:	c3                   	retq   

0000000000001be4 <stdThreadLockCreate>:
    1be4:	f3 0f 1e fa          	endbr64 
    1be8:	55                   	push   %rbp
    1be9:	48 89 e5             	mov    %rsp,%rbp
    1bec:	48 83 ec 20          	sub    $0x20,%rsp
    1bf0:	48 89 7d e8          	mov    %rdi,-0x18(%rbp)
    1bf4:	48 c7 45 f8 00 00 00 	movq   $0x0,-0x8(%rbp)
    1bfb:	00 
    1bfc:	48 8b 45 e8          	mov    -0x18(%rbp),%rax
    1c00:	48 c7 00 00 00 00 00 	movq   $0x0,(%rax)
    1c07:	bf 28 00 00 00       	mov    $0x28,%edi
    1c0c:	e8 4f f6 ff ff       	callq  1260 <malloc@plt>
    1c11:	48 89 45 f8          	mov    %rax,-0x8(%rbp)
    1c15:	48 83 7d f8 00       	cmpq   $0x0,-0x8(%rbp)
    1c1a:	75 07                	jne    1c23 <stdThreadLockCreate+0x3f>
    1c1c:	b8 00 00 00 00       	mov    $0x0,%eax
    1c21:	eb 38                	jmp    1c5b <stdThreadLockCreate+0x77>
    1c23:	48 8b 45 f8          	mov    -0x8(%rbp),%rax
    1c27:	be 00 00 00 00       	mov    $0x0,%esi
    1c2c:	48 89 c7             	mov    %rax,%rdi
    1c2f:	e8 6c f6 ff ff       	callq  12a0 <pthread_mutex_init@plt>
    1c34:	85 c0                	test   %eax,%eax
    1c36:	74 13                	je     1c4b <stdThreadLockCreate+0x67>
    1c38:	48 8b 45 e8          	mov    -0x18(%rbp),%rax
    1c3c:	48 89 c7             	mov    %rax,%rdi
    1c3f:	e8 4c f5 ff ff       	callq  1190 <free@plt>
    1c44:	b8 00 00 00 00       	mov    $0x0,%eax
    1c49:	eb 10                	jmp    1c5b <stdThreadLockCreate+0x77>
    1c4b:	48 8b 45 e8          	mov    -0x18(%rbp),%rax
    1c4f:	48 8b 55 f8          	mov    -0x8(%rbp),%rdx
    1c53:	48 89 10             	mov    %rdx,(%rax)
    1c56:	b8 01 00 00 00       	mov    $0x1,%eax
    1c5b:	c9                   	leaveq 
    1c5c:	c3                   	retq   

0000000000001c5d <stdThreadLockAcquire>:
    1c5d:	f3 0f 1e fa          	endbr64 
    1c61:	55                   	push   %rbp
    1c62:	48 89 e5             	mov    %rsp,%rbp
    1c65:	48 83 ec 10          	sub    $0x10,%rsp
    1c69:	48 89 7d f8          	mov    %rdi,-0x8(%rbp)
    1c6d:	48 8b 45 f8          	mov    -0x8(%rbp),%rax
    1c71:	48 89 c7             	mov    %rax,%rdi
    1c74:	e8 37 f6 ff ff       	callq  12b0 <pthread_mutex_lock@plt>
    1c79:	90                   	nop
    1c7a:	c9                   	leaveq 
    1c7b:	c3                   	retq   

0000000000001c7c <stdThreadLockRelease>:
    1c7c:	f3 0f 1e fa          	endbr64 
    1c80:	55                   	push   %rbp
    1c81:	48 89 e5             	mov    %rsp,%rbp
    1c84:	48 83 ec 10          	sub    $0x10,%rsp
    1c88:	48 89 7d f8          	mov    %rdi,-0x8(%rbp)
    1c8c:	48 8b 45 f8          	mov    -0x8(%rbp),%rax
    1c90:	48 89 c7             	mov    %rax,%rdi
    1c93:	e8 a8 f5 ff ff       	callq  1240 <pthread_mutex_unlock@plt>
    1c98:	90                   	nop
    1c99:	c9                   	leaveq 
    1c9a:	c3                   	retq   

0000000000001c9b <stdThreadLockDestroy>:
    1c9b:	f3 0f 1e fa          	endbr64 
    1c9f:	55                   	push   %rbp
    1ca0:	48 89 e5             	mov    %rsp,%rbp
    1ca3:	48 83 ec 10          	sub    $0x10,%rsp
    1ca7:	48 89 7d f8          	mov    %rdi,-0x8(%rbp)
    1cab:	48 8b 45 f8          	mov    -0x8(%rbp),%rax
    1caf:	48 89 c7             	mov    %rax,%rdi
    1cb2:	e8 39 f5 ff ff       	callq  11f0 <pthread_mutex_destroy@plt>
    1cb7:	48 8b 45 f8          	mov    -0x8(%rbp),%rax
    1cbb:	48 89 c7             	mov    %rax,%rdi
    1cbe:	e8 cd f4 ff ff       	callq  1190 <free@plt>
    1cc3:	90                   	nop
    1cc4:	c9                   	leaveq 
    1cc5:	c3                   	retq   
    1cc6:	66 2e 0f 1f 84 00 00 	nopw   %cs:0x0(%rax,%rax,1)
    1ccd:	00 00 00 

0000000000001cd0 <__libc_csu_init>:
    1cd0:	f3 0f 1e fa          	endbr64 
    1cd4:	41 57                	push   %r15
    1cd6:	4c 8d 3d 2b 20 00 00 	lea    0x202b(%rip),%r15        # 3d08 <__frame_dummy_init_array_entry>
    1cdd:	41 56                	push   %r14
    1cdf:	49 89 d6             	mov    %rdx,%r14
    1ce2:	41 55                	push   %r13
    1ce4:	49 89 f5             	mov    %rsi,%r13
    1ce7:	41 54                	push   %r12
    1ce9:	41 89 fc             	mov    %edi,%r12d
    1cec:	55                   	push   %rbp
    1ced:	48 8d 2d 1c 20 00 00 	lea    0x201c(%rip),%rbp        # 3d10 <__do_global_dtors_aux_fini_array_entry>
    1cf4:	53                   	push   %rbx
    1cf5:	4c 29 fd             	sub    %r15,%rbp
    1cf8:	48 83 ec 08          	sub    $0x8,%rsp
    1cfc:	e8 ff f2 ff ff       	callq  1000 <_init>
    1d01:	48 c1 fd 03          	sar    $0x3,%rbp
    1d05:	74 1f                	je     1d26 <__libc_csu_init+0x56>
    1d07:	31 db                	xor    %ebx,%ebx
    1d09:	0f 1f 80 00 00 00 00 	nopl   0x0(%rax)
    1d10:	4c 89 f2             	mov    %r14,%rdx
    1d13:	4c 89 ee             	mov    %r13,%rsi
    1d16:	44 89 e7             	mov    %r12d,%edi
    1d19:	41 ff 14 df          	callq  *(%r15,%rbx,8)
    1d1d:	48 83 c3 01          	add    $0x1,%rbx
    1d21:	48 39 dd             	cmp    %rbx,%rbp
    1d24:	75 ea                	jne    1d10 <__libc_csu_init+0x40>
    1d26:	48 83 c4 08          	add    $0x8,%rsp
    1d2a:	5b                   	pop    %rbx
    1d2b:	5d                   	pop    %rbp
    1d2c:	41 5c                	pop    %r12
    1d2e:	41 5d                	pop    %r13
    1d30:	41 5e                	pop    %r14
    1d32:	41 5f                	pop    %r15
    1d34:	c3                   	retq   
    1d35:	66 66 2e 0f 1f 84 00 	data16 nopw %cs:0x0(%rax,%rax,1)
    1d3c:	00 00 00 00 

0000000000001d40 <__libc_csu_fini>:
    1d40:	f3 0f 1e fa          	endbr64 
    1d44:	c3                   	retq   

Disassembly of section .fini:

0000000000001d48 <_fini>:
    1d48:	f3 0f 1e fa          	endbr64 
    1d4c:	48 83 ec 08          	sub    $0x8,%rsp
    1d50:	48 83 c4 08          	add    $0x8,%rsp
    1d54:	c3                   	retq   
